Archive member included to satisfy reference by file (symbol)

c:/program files/microchip/xc32/v3.01/bin/bin/../../lib/gcc/pic32c/8.3.1/../../../../pic32c/lib/thumb/v6-m/nofp\libpic32c.a(data_init.o)
                              build/default/production/_ext/1171490990/startup_xc32.o (__pic32c_data_initialization)
c:/program files/microchip/xc32/v3.01/bin/bin/../../lib/gcc/pic32c/8.3.1/thumb/v6-m/nofp\libgcc.a(_aeabi_uldivmod.o)
                              build/default/production/_ext/504274921/plib_sercom5_usart.o (__aeabi_uldivmod)
c:/program files/microchip/xc32/v3.01/bin/bin/../../lib/gcc/pic32c/8.3.1/thumb/v6-m/nofp\libgcc.a(_udivmoddi4.o)
                              c:/program files/microchip/xc32/v3.01/bin/bin/../../lib/gcc/pic32c/8.3.1/thumb/v6-m/nofp\libgcc.a(_aeabi_uldivmod.o) (__udivmoddi4)
c:/program files/microchip/xc32/v3.01/bin/bin/../../lib/gcc/pic32c/8.3.1/thumb/v6-m/nofp\libgcc.a(_dvmd_tls.o)
                              c:/program files/microchip/xc32/v3.01/bin/bin/../../lib/gcc/pic32c/8.3.1/thumb/v6-m/nofp\libgcc.a(_aeabi_uldivmod.o) (__aeabi_ldiv0)
c:/program files/microchip/xc32/v3.01/bin/bin/../../lib/gcc/pic32c/8.3.1/thumb/v6-m/nofp\libgcc.a(_clzdi2.o)
                              c:/program files/microchip/xc32/v3.01/bin/bin/../../lib/gcc/pic32c/8.3.1/thumb/v6-m/nofp\libgcc.a(_udivmoddi4.o) (__clzdi2)
c:/program files/microchip/xc32/v3.01/bin/bin/../../lib/gcc/pic32c/8.3.1/thumb/v6-m/nofp\libgcc.a(_clzsi2.o)
                              c:/program files/microchip/xc32/v3.01/bin/bin/../../lib/gcc/pic32c/8.3.1/thumb/v6-m/nofp\libgcc.a(_clzdi2.o) (__clzsi2)
c:/program files/microchip/xc32/v3.01/bin/bin/../../lib/gcc/pic32c/8.3.1/../../../../pic32c/lib/thumb/v6-m/nofp\libc_nano.a(_lib_a-sprintf.cdnopuxX.o)
                              (_sprintf_cdnopuxX)
c:/program files/microchip/xc32/v3.01/bin/bin/../../lib/gcc/pic32c/8.3.1/../../../../pic32c/lib/thumb/v6-m/nofp\libc_nano.a(lib_a-init.o)
                              build/default/production/_ext/1171490990/startup_xc32.o (__libc_init_array)
c:/program files/microchip/xc32/v3.01/bin/bin/../../lib/gcc/pic32c/8.3.1/../../../../pic32c/lib/thumb/v6-m/nofp\libc_nano.a(lib_a-memcpy-stub.o)
                              build/default/production/_ext/1593096446/plib_nvmctrl.o (memcpy)
c:/program files/microchip/xc32/v3.01/bin/bin/../../lib/gcc/pic32c/8.3.1/../../../../pic32c/lib/thumb/v6-m/nofp\libc_nano.a(lib_a-memset.o)
                              build/default/production/_ext/404212886/FreeRTOS_tasks.o (memset)
c:/program files/microchip/xc32/v3.01/bin/bin/../../lib/gcc/pic32c/8.3.1/../../../../pic32c/lib/thumb/v6-m/nofp\libc_nano.a(lib_a-strlen.o)
                              build/default/production/_ext/1360937237/app1.o (strlen)
c:/program files/microchip/xc32/v3.01/bin/bin/../../lib/gcc/pic32c/8.3.1/../../../../pic32c/lib/thumb/v6-m/nofp\libc_nano.a(_lib_a-nano-vfprintf.cdnopuxX.o)
                              c:/program files/microchip/xc32/v3.01/bin/bin/../../lib/gcc/pic32c/8.3.1/../../../../pic32c/lib/thumb/v6-m/nofp\libc_nano.a(_lib_a-sprintf.cdnopuxX.o) (_vfprintf_cdnopuxX)
c:/program files/microchip/xc32/v3.01/bin/bin/../../lib/gcc/pic32c/8.3.1/../../../../pic32c/lib/thumb/v6-m/nofp\libc_nano.a(lib_a-__ssfputs.o)
                              c:/program files/microchip/xc32/v3.01/bin/bin/../../lib/gcc/pic32c/8.3.1/../../../../pic32c/lib/thumb/v6-m/nofp\libc_nano.a(_lib_a-nano-vfprintf.cdnopuxX.o) (__ssfputs_r)
c:/program files/microchip/xc32/v3.01/bin/bin/../../lib/gcc/pic32c/8.3.1/../../../../pic32c/lib/thumb/v6-m/nofp\libc_nano.a(lib_a-findfp.o)
                              c:/program files/microchip/xc32/v3.01/bin/bin/../../lib/gcc/pic32c/8.3.1/../../../../pic32c/lib/thumb/v6-m/nofp\libc_nano.a(_lib_a-nano-vfprintf.cdnopuxX.o) (__sinit)
c:/program files/microchip/xc32/v3.01/bin/bin/../../lib/gcc/pic32c/8.3.1/../../../../pic32c/lib/thumb/v6-m/nofp\libc_nano.a(lib_a-fputwc.o)
                              c:/program files/microchip/xc32/v3.01/bin/bin/../../lib/gcc/pic32c/8.3.1/../../../../pic32c/lib/thumb/v6-m/nofp\libc_nano.a(lib_a-__ssfputs.o) (_fputwc_r)
c:/program files/microchip/xc32/v3.01/bin/bin/../../lib/gcc/pic32c/8.3.1/../../../../pic32c/lib/thumb/v6-m/nofp\libc_nano.a(lib_a-fwalk.o)
                              c:/program files/microchip/xc32/v3.01/bin/bin/../../lib/gcc/pic32c/8.3.1/../../../../pic32c/lib/thumb/v6-m/nofp\libc_nano.a(lib_a-findfp.o) (_fwalk_reent)
c:/program files/microchip/xc32/v3.01/bin/bin/../../lib/gcc/pic32c/8.3.1/../../../../pic32c/lib/thumb/v6-m/nofp\libc_nano.a(lib_a-impure.o)
                              c:/program files/microchip/xc32/v3.01/bin/bin/../../lib/gcc/pic32c/8.3.1/../../../../pic32c/lib/thumb/v6-m/nofp\libc_nano.a(lib_a-findfp.o) (_global_impure_ptr)
c:/program files/microchip/xc32/v3.01/bin/bin/../../lib/gcc/pic32c/8.3.1/../../../../pic32c/lib/thumb/v6-m/nofp\libc_nano.a(lib_a-locale.o)
                              c:/program files/microchip/xc32/v3.01/bin/bin/../../lib/gcc/pic32c/8.3.1/../../../../pic32c/lib/thumb/v6-m/nofp\libc_nano.a(lib_a-fputwc.o) (__locale_mb_cur_max)
c:/program files/microchip/xc32/v3.01/bin/bin/../../lib/gcc/pic32c/8.3.1/../../../../pic32c/lib/thumb/v6-m/nofp\libc_nano.a(lib_a-mbtowc_r.o)
                              c:/program files/microchip/xc32/v3.01/bin/bin/../../lib/gcc/pic32c/8.3.1/../../../../pic32c/lib/thumb/v6-m/nofp\libc_nano.a(lib_a-locale.o) (__ascii_mbtowc)
c:/program files/microchip/xc32/v3.01/bin/bin/../../lib/gcc/pic32c/8.3.1/../../../../pic32c/lib/thumb/v6-m/nofp\libc_nano.a(lib_a-memchr-stub.o)
                              c:/program files/microchip/xc32/v3.01/bin/bin/../../lib/gcc/pic32c/8.3.1/../../../../pic32c/lib/thumb/v6-m/nofp\libc_nano.a(_lib_a-nano-vfprintf.cdnopuxX.o) (memchr)
c:/program files/microchip/xc32/v3.01/bin/bin/../../lib/gcc/pic32c/8.3.1/../../../../pic32c/lib/thumb/v6-m/nofp\libc_nano.a(lib_a-nano-mallocr.o)
                              c:/program files/microchip/xc32/v3.01/bin/bin/../../lib/gcc/pic32c/8.3.1/../../../../pic32c/lib/thumb/v6-m/nofp\libc_nano.a(lib_a-findfp.o) (_malloc_r)
c:/program files/microchip/xc32/v3.01/bin/bin/../../lib/gcc/pic32c/8.3.1/../../../../pic32c/lib/thumb/v6-m/nofp\libc_nano.a(lib_a-nano-vfprintf_i.o)
                              c:/program files/microchip/xc32/v3.01/bin/bin/../../lib/gcc/pic32c/8.3.1/../../../../pic32c/lib/thumb/v6-m/nofp\libc_nano.a(_lib_a-nano-vfprintf.cdnopuxX.o) (_printf_common)
c:/program files/microchip/xc32/v3.01/bin/bin/../../lib/gcc/pic32c/8.3.1/../../../../pic32c/lib/thumb/v6-m/nofp\libc_nano.a(lib_a-sbrkr.o)
                              c:/program files/microchip/xc32/v3.01/bin/bin/../../lib/gcc/pic32c/8.3.1/../../../../pic32c/lib/thumb/v6-m/nofp\libc_nano.a(lib_a-nano-mallocr.o) (_sbrk_r)
c:/program files/microchip/xc32/v3.01/bin/bin/../../lib/gcc/pic32c/8.3.1/../../../../pic32c/lib/thumb/v6-m/nofp\libc_nano.a(lib_a-stdio.o)
                              c:/program files/microchip/xc32/v3.01/bin/bin/../../lib/gcc/pic32c/8.3.1/../../../../pic32c/lib/thumb/v6-m/nofp\libc_nano.a(lib_a-findfp.o) (__sread)
c:/program files/microchip/xc32/v3.01/bin/bin/../../lib/gcc/pic32c/8.3.1/../../../../pic32c/lib/thumb/v6-m/nofp\libc_nano.a(lib_a-strcmp.o)
                              c:/program files/microchip/xc32/v3.01/bin/bin/../../lib/gcc/pic32c/8.3.1/../../../../pic32c/lib/thumb/v6-m/nofp\libc_nano.a(lib_a-locale.o) (strcmp)
c:/program files/microchip/xc32/v3.01/bin/bin/../../lib/gcc/pic32c/8.3.1/../../../../pic32c/lib/thumb/v6-m/nofp\libc_nano.a(lib_a-wbuf.o)
                              c:/program files/microchip/xc32/v3.01/bin/bin/../../lib/gcc/pic32c/8.3.1/../../../../pic32c/lib/thumb/v6-m/nofp\libc_nano.a(lib_a-__ssfputs.o) (__swbuf_r)
c:/program files/microchip/xc32/v3.01/bin/bin/../../lib/gcc/pic32c/8.3.1/../../../../pic32c/lib/thumb/v6-m/nofp\libc_nano.a(lib_a-wcrtomb.o)
                              c:/program files/microchip/xc32/v3.01/bin/bin/../../lib/gcc/pic32c/8.3.1/../../../../pic32c/lib/thumb/v6-m/nofp\libc_nano.a(lib_a-fputwc.o) (_wcrtomb_r)
c:/program files/microchip/xc32/v3.01/bin/bin/../../lib/gcc/pic32c/8.3.1/../../../../pic32c/lib/thumb/v6-m/nofp\libc_nano.a(lib_a-wctomb_r.o)
                              c:/program files/microchip/xc32/v3.01/bin/bin/../../lib/gcc/pic32c/8.3.1/../../../../pic32c/lib/thumb/v6-m/nofp\libc_nano.a(lib_a-locale.o) (__ascii_wctomb)
c:/program files/microchip/xc32/v3.01/bin/bin/../../lib/gcc/pic32c/8.3.1/../../../../pic32c/lib/thumb/v6-m/nofp\libc_nano.a(lib_a-writer.o)
                              c:/program files/microchip/xc32/v3.01/bin/bin/../../lib/gcc/pic32c/8.3.1/../../../../pic32c/lib/thumb/v6-m/nofp\libc_nano.a(lib_a-stdio.o) (_write_r)
c:/program files/microchip/xc32/v3.01/bin/bin/../../lib/gcc/pic32c/8.3.1/../../../../pic32c/lib/thumb/v6-m/nofp\libc_nano.a(lib_a-wsetup.o)
                              c:/program files/microchip/xc32/v3.01/bin/bin/../../lib/gcc/pic32c/8.3.1/../../../../pic32c/lib/thumb/v6-m/nofp\libc_nano.a(_lib_a-nano-vfprintf.cdnopuxX.o) (__swsetup_r)
c:/program files/microchip/xc32/v3.01/bin/bin/../../lib/gcc/pic32c/8.3.1/../../../../pic32c/lib/thumb/v6-m/nofp\libc_nano.a(lib_a-closer.o)
                              c:/program files/microchip/xc32/v3.01/bin/bin/../../lib/gcc/pic32c/8.3.1/../../../../pic32c/lib/thumb/v6-m/nofp\libc_nano.a(lib_a-stdio.o) (_close_r)
c:/program files/microchip/xc32/v3.01/bin/bin/../../lib/gcc/pic32c/8.3.1/../../../../pic32c/lib/thumb/v6-m/nofp\libc_nano.a(lib_a-ctype_.o)
                              c:/program files/microchip/xc32/v3.01/bin/bin/../../lib/gcc/pic32c/8.3.1/../../../../pic32c/lib/thumb/v6-m/nofp\libc_nano.a(lib_a-locale.o) (_ctype_)
c:/program files/microchip/xc32/v3.01/bin/bin/../../lib/gcc/pic32c/8.3.1/../../../../pic32c/lib/thumb/v6-m/nofp\libc_nano.a(lib_a-fflush.o)
                              c:/program files/microchip/xc32/v3.01/bin/bin/../../lib/gcc/pic32c/8.3.1/../../../../pic32c/lib/thumb/v6-m/nofp\libc_nano.a(lib_a-findfp.o) (_fflush_r)
c:/program files/microchip/xc32/v3.01/bin/bin/../../lib/gcc/pic32c/8.3.1/../../../../pic32c/lib/thumb/v6-m/nofp\libc_nano.a(lib_a-lseekr.o)
                              c:/program files/microchip/xc32/v3.01/bin/bin/../../lib/gcc/pic32c/8.3.1/../../../../pic32c/lib/thumb/v6-m/nofp\libc_nano.a(lib_a-stdio.o) (_lseek_r)
c:/program files/microchip/xc32/v3.01/bin/bin/../../lib/gcc/pic32c/8.3.1/../../../../pic32c/lib/thumb/v6-m/nofp\libc_nano.a(lib_a-makebuf.o)
                              c:/program files/microchip/xc32/v3.01/bin/bin/../../lib/gcc/pic32c/8.3.1/../../../../pic32c/lib/thumb/v6-m/nofp\libc_nano.a(lib_a-wsetup.o) (__smakebuf_r)
c:/program files/microchip/xc32/v3.01/bin/bin/../../lib/gcc/pic32c/8.3.1/../../../../pic32c/lib/thumb/v6-m/nofp\libc_nano.a(lib_a-mlock.o)
                              c:/program files/microchip/xc32/v3.01/bin/bin/../../lib/gcc/pic32c/8.3.1/../../../../pic32c/lib/thumb/v6-m/nofp\libc_nano.a(lib_a-nano-mallocr.o) (__malloc_lock)
c:/program files/microchip/xc32/v3.01/bin/bin/../../lib/gcc/pic32c/8.3.1/../../../../pic32c/lib/thumb/v6-m/nofp\libc_nano.a(lib_a-nano-freer.o)
                              c:/program files/microchip/xc32/v3.01/bin/bin/../../lib/gcc/pic32c/8.3.1/../../../../pic32c/lib/thumb/v6-m/nofp\libc_nano.a(lib_a-wsetup.o) (_free_r)
c:/program files/microchip/xc32/v3.01/bin/bin/../../lib/gcc/pic32c/8.3.1/../../../../pic32c/lib/thumb/v6-m/nofp\libc_nano.a(lib_a-readr.o)
                              c:/program files/microchip/xc32/v3.01/bin/bin/../../lib/gcc/pic32c/8.3.1/../../../../pic32c/lib/thumb/v6-m/nofp\libc_nano.a(lib_a-stdio.o) (_read_r)
c:/program files/microchip/xc32/v3.01/bin/bin/../../lib/gcc/pic32c/8.3.1/../../../../pic32c/lib/thumb/v6-m/nofp\libc_nano.a(lib_a-reent.o)
                              c:/program files/microchip/xc32/v3.01/bin/bin/../../lib/gcc/pic32c/8.3.1/../../../../pic32c/lib/thumb/v6-m/nofp\libc_nano.a(lib_a-sbrkr.o) (errno)
c:/program files/microchip/xc32/v3.01/bin/bin/../../lib/gcc/pic32c/8.3.1/../../../../pic32c/lib/thumb/v6-m/nofp\libc_nano.a(lib_a-fstatr.o)
                              c:/program files/microchip/xc32/v3.01/bin/bin/../../lib/gcc/pic32c/8.3.1/../../../../pic32c/lib/thumb/v6-m/nofp\libc_nano.a(lib_a-makebuf.o) (_fstat_r)
c:/program files/microchip/xc32/v3.01/bin/bin/../../lib/gcc/pic32c/8.3.1/../../../../pic32c/lib/thumb/v6-m/nofp\libc_nano.a(lib_a-isattyr.o)
                              c:/program files/microchip/xc32/v3.01/bin/bin/../../lib/gcc/pic32c/8.3.1/../../../../pic32c/lib/thumb/v6-m/nofp\libc_nano.a(lib_a-makebuf.o) (_isatty_r)
c:/program files/microchip/xc32/v3.01/bin/bin/../../lib/gcc/pic32c/8.3.1/../../../../pic32c/lib/thumb/v6-m/nofp\libpic32c.a(_close.o)
                              c:/program files/microchip/xc32/v3.01/bin/bin/../../lib/gcc/pic32c/8.3.1/../../../../pic32c/lib/thumb/v6-m/nofp\libc_nano.a(lib_a-closer.o) (_close)
c:/program files/microchip/xc32/v3.01/bin/bin/../../lib/gcc/pic32c/8.3.1/../../../../pic32c/lib/thumb/v6-m/nofp\libpic32c.a(_fstat.o)
                              c:/program files/microchip/xc32/v3.01/bin/bin/../../lib/gcc/pic32c/8.3.1/../../../../pic32c/lib/thumb/v6-m/nofp\libc_nano.a(lib_a-fstatr.o) (_fstat)
c:/program files/microchip/xc32/v3.01/bin/bin/../../lib/gcc/pic32c/8.3.1/../../../../pic32c/lib/thumb/v6-m/nofp\libpic32c.a(_isatty.o)
                              c:/program files/microchip/xc32/v3.01/bin/bin/../../lib/gcc/pic32c/8.3.1/../../../../pic32c/lib/thumb/v6-m/nofp\libc_nano.a(lib_a-isattyr.o) (_isatty)
c:/program files/microchip/xc32/v3.01/bin/bin/../../lib/gcc/pic32c/8.3.1/../../../../pic32c/lib/thumb/v6-m/nofp\libpic32c.a(_lseek.o)
                              c:/program files/microchip/xc32/v3.01/bin/bin/../../lib/gcc/pic32c/8.3.1/../../../../pic32c/lib/thumb/v6-m/nofp\libc_nano.a(lib_a-lseekr.o) (_lseek)
c:/program files/microchip/xc32/v3.01/bin/bin/../../lib/gcc/pic32c/8.3.1/../../../../pic32c/lib/thumb/v6-m/nofp\libpic32c.a(_read.o)
                              c:/program files/microchip/xc32/v3.01/bin/bin/../../lib/gcc/pic32c/8.3.1/../../../../pic32c/lib/thumb/v6-m/nofp\libc_nano.a(lib_a-readr.o) (_read)
c:/program files/microchip/xc32/v3.01/bin/bin/../../lib/gcc/pic32c/8.3.1/../../../../pic32c/lib/thumb/v6-m/nofp\libpic32c.a(sbrk.o)
                              c:/program files/microchip/xc32/v3.01/bin/bin/../../lib/gcc/pic32c/8.3.1/../../../../pic32c/lib/thumb/v6-m/nofp\libc_nano.a(lib_a-sbrkr.o) (_sbrk)
c:/program files/microchip/xc32/v3.01/bin/bin/../../lib/gcc/pic32c/8.3.1/../../../../pic32c/lib/thumb/v6-m/nofp\libpic32c.a(_write.o)
                              c:/program files/microchip/xc32/v3.01/bin/bin/../../lib/gcc/pic32c/8.3.1/../../../../pic32c/lib/thumb/v6-m/nofp\libc_nano.a(lib_a-writer.o) (_write)
c:/program files/microchip/xc32/v3.01/bin/bin/../../lib/gcc/pic32c/8.3.1/../../../../pic32c/lib/thumb/v6-m/nofp\libpic32c.a(close.o)
                              c:/program files/microchip/xc32/v3.01/bin/bin/../../lib/gcc/pic32c/8.3.1/../../../../pic32c/lib/thumb/v6-m/nofp\libpic32c.a(_close.o) (close)
c:/program files/microchip/xc32/v3.01/bin/bin/../../lib/gcc/pic32c/8.3.1/../../../../pic32c/lib/thumb/v6-m/nofp\libpic32c.a(fstat.o)
                              c:/program files/microchip/xc32/v3.01/bin/bin/../../lib/gcc/pic32c/8.3.1/../../../../pic32c/lib/thumb/v6-m/nofp\libpic32c.a(_fstat.o) (fstat)
c:/program files/microchip/xc32/v3.01/bin/bin/../../lib/gcc/pic32c/8.3.1/../../../../pic32c/lib/thumb/v6-m/nofp\libpic32c.a(isatty.o)
                              c:/program files/microchip/xc32/v3.01/bin/bin/../../lib/gcc/pic32c/8.3.1/../../../../pic32c/lib/thumb/v6-m/nofp\libpic32c.a(_isatty.o) (isatty)
c:/program files/microchip/xc32/v3.01/bin/bin/../../lib/gcc/pic32c/8.3.1/../../../../pic32c/lib/thumb/v6-m/nofp\libpic32c.a(lseek.o)
                              c:/program files/microchip/xc32/v3.01/bin/bin/../../lib/gcc/pic32c/8.3.1/../../../../pic32c/lib/thumb/v6-m/nofp\libpic32c.a(_lseek.o) (lseek)
c:/program files/microchip/xc32/v3.01/bin/bin/../../lib/gcc/pic32c/8.3.1/../../../../pic32c/lib/thumb/v6-m/nofp\libpic32c.a(read.o)
                              c:/program files/microchip/xc32/v3.01/bin/bin/../../lib/gcc/pic32c/8.3.1/../../../../pic32c/lib/thumb/v6-m/nofp\libpic32c.a(_read.o) (read)
c:/program files/microchip/xc32/v3.01/bin/bin/../../lib/gcc/pic32c/8.3.1/../../../../pic32c/lib/thumb/v6-m/nofp\libpic32c.a(write.o)
                              c:/program files/microchip/xc32/v3.01/bin/bin/../../lib/gcc/pic32c/8.3.1/../../../../pic32c/lib/thumb/v6-m/nofp\libpic32c.a(_write.o) (write)
c:/program files/microchip/xc32/v3.01/bin/bin/../../lib/gcc/pic32c/8.3.1/thumb/v6-m/nofp\libgcc.a(_udivsi3.o)
                              c:/program files/microchip/xc32/v3.01/bin/bin/../../lib/gcc/pic32c/8.3.1/../../../../pic32c/lib/thumb/v6-m/nofp\libc_nano.a(_lib_a-nano-vfprintf.cdnopuxX.o) (__aeabi_uidivmod)

Allocating common symbols
Common symbol       size              file

errno               0x4               c:/program files/microchip/xc32/v3.01/bin/bin/../../lib/gcc/pic32c/8.3.1/../../../../pic32c/lib/thumb/v6-m/nofp\libc_nano.a(lib_a-reent.o)

Microchip PIC32 Memory-Usage Report

ROM Program-Memory Usage
section                    address  length [bytes]      (dec)  Description
-------                 ----------  -------------------------  -----------
.vectors                         0           0xb0         176   
.text                         0xb0           0x20          32  App's exec code 
.ARM.exidx                    0xd0            0x8           8   
.dinit                        0xd8          0x470        1136   
.text._vfprintf_r_cdnop      0x548          0x3c4         964   
.text.xTaskCreate            0x90c          0x1d4         468   
.text                        0xae0          0x1a4         420  App's exec code 
.text.SERCOM5_USART_Int      0xc84          0x180         384   
.text.xQueueSemaphoreTa      0xe04          0x136         310   
.text.EVSYS_Initialize       0xf3a            0x2           2   
.text.SERCOM5_USART_Ser      0xf3c          0x134         308   
.text.xTaskIncrementTic     0x1070          0x11c         284   
.text.__sflush_r            0x118c          0x114         276   
.text                       0x12a0          0x114         276  App's exec code 
.text.DRV_USART_Initial     0x13b4          0x108         264   
.text.xQueueGenericSend     0x14bc          0x108         264   
.rodata._ctype_             0x15c4          0x101         257   
.text.xQueueReceive         0x16c6           0xf8         248   
.text._mon_putc             0x17be            0x2           2   
.text.__swsetup_r           0x17c0           0xec         236   
.text.DRV_USART_Open        0x18ac           0xe8         232   
.text.xTaskResumeAll        0x1994           0xe0         224   
.text._printf_common        0x1a74           0xda         218   
.text.SYS_DMA_DataWidth     0x1b4e            0x2           2   
.text.__swbuf_r             0x1b50           0xcc         204   
.text.vTaskSwitchContex     0x1c1c           0xc4         196   
.text.APP1_Tasks            0x1ce0           0xc0         192   
.text.APP2_Tasks            0x1da0           0xc0         192   
.text._malloc_r             0x1e60           0xbc         188   
.text.CLOCK_Initialize      0x1f1c           0x9c         156   
.text.DRV_USART_WriteBu     0x1fb8           0x94         148   
.text.__smakebuf_r          0x204c           0x94         148   
.text._free_r               0x20e0           0x94         148   
.text.xTaskPriorityInhe     0x2174           0x90         144   
.text.__pic32c_data_ini     0x2204           0x90         144   
.text.prvUnlockQueue        0x2294           0x86         134   
.text.Dummy_Handler         0x231a            0x2           2   
.text.prvAddCurrentTask     0x231c           0x7c         124   
.text.__sfp                 0x2398           0x7c         124   
.text.__fputwc              0x2414           0x7c         124   
.text.xTaskRemoveFromEv     0x2490           0x78         120   
.text.prvCopyDataToQueu     0x2508           0x76         118   
.text.NonMaskableInt_Ha     0x257e            0x2           2   
.text.pvPortMalloc          0x2580           0x70         112   
.text.vTaskPriorityDisi     0x25f0           0x6c         108   
.text.SYS_Tasks             0x265c           0x68         104   
.text.prvIdleTask           0x26c4           0x68         104   
.text.__sinit               0x272c           0x68         104   
.text.xQueueGenericRese     0x2794           0x62          98   
.text.HardFault_Handler     0x27f6            0x2           2   
.text.SERCOM5_USART_Wri     0x27f8           0x60          96   
.text.xTaskPriorityDisi     0x2858           0x60          96   
.text.OSAL_SEM_Create       0x28b8           0x5a          90   
.text.xQueueGiveFromISR     0x2912           0x5a          90   
.text.NVIC_Initialize       0x296c           0x58          88   
.text.SERCOM5_USART_Ini     0x29c4           0x58          88   
.text.xTaskCheckForTime     0x2a1c           0x58          88   
.text._fflush_r             0x2a74           0x58          88   
.text.vTaskStartSchedul     0x2acc           0x54          84   
.text._DRV_USART_RX_PLI     0x2b20           0x50          80   
.text.SYS_Initialize        0x2b70           0x50          80   
.text.__swhatbuf_r          0x2bc0           0x50          80   
.text                       0x2c10           0x48          72  App's exec code 
.text._DRV_USART_Driver     0x2c58           0x48          72   
.text.Reset_Handler         0x2ca0           0x48          72   
.text.__libc_init_array     0x2ce8           0x48          72   
.text.__ssfputs_r           0x2d30           0x48          72   
.text.std                   0x2d78           0x48          72   
.text.SERCOM5_USART_Rea     0x2dc0           0x44          68   
.text.NVMCTRL_Initializ     0x2e04            0xc          12   
.text.xPortPendSVHandle     0x2e10           0x44          68   
.text.TC5_CompareInitia     0x2e54           0x44          68   
.text.TC4_CompareInitia     0x2e98           0x44          68   
.text._fwalk_reent          0x2edc           0x42          66   
.text.Dummy_App_Func        0x2f1e            0x2           2   
.text.PORT_Initialize       0x2f20           0x40          64   
.text                       0x2f60           0x40          64  App's exec code 
.text.xPortStartSchedul     0x2fa0           0x3c          60   
.text                       0x2fdc           0x3c          60  App's exec code 
.text._sprintf_cdnopuxX     0x3018           0x3c          60   
.text.write                 0x3054           0x3c          60   
.text.__swrite              0x3090           0x38          56   
.text.OSAL_SEM_PostISR      0x30c8           0x34          52   
.text._mon_getc             0x30fc            0x4           4   
.text.vPortStartFirstTa     0x3100           0x34          52   
.rodata                     0x3134           0x33          51  Read-only const 
.text._sbrk                 0x3168           0x30          48   
.text.vListInsert           0x3198           0x2e          46   
.text.xQueueGenericCrea     0x31c6           0x2e          46   
.text.SERCOM5_USART_Err     0x31f4           0x2c          44   
.rodata.drvUsart0InitDa     0x3220           0x2c          44   
.rodata.drvUsart0PlibAP     0x324c           0x2c          44   
.text.prvResetNextTaskU     0x3278           0x2c          44   
.text.APP1_Initialize       0x32a4           0x2c          44   
.rodata                     0x32d0           0x2c          44  Read-only const 
.text.__sfmoreglue          0x32fc           0x2c          44   
.text.__sseek               0x3328           0x2c          44   
.text._wcrtomb_r            0x3354           0x2c          44   
.text.read                  0x3380           0x2c          44   
.text.__sfputc_r            0x33ac           0x2a          42   
.text.vPortSVCHandler       0x33d6            0x2           2   
.text.SERCOM5_USART_Rea     0x33d8           0x28          40   
.text.vPortSetupTimerIn     0x3400           0x28          40   
.text.__sread               0x3428           0x28          40   
.text._write_r              0x3450           0x28          40   
.text._lseek_r              0x3478           0x28          40   
.text._read_r               0x34a0           0x28          40   
.text.uxListRemove          0x34c8           0x26          38   
.text.vPortFree             0x34ee            0x2           2   
.text.OSAL_SEM_Pend         0x34f0           0x24          36   
.text.OSAL_MUTEX_Lock       0x3514           0x24          36   
.rodata                     0x3538           0x24          36  Read-only const 
.text.xPortSysTickHandl     0x355c           0x24          36   
.text.prvCopyDataFromQu     0x3580           0x24          36   
.text.xQueueCreateMutex     0x35a4           0x24          36   
.text.TC5_CompareInterr     0x35c8           0x24          36   
.text.TC4_CompareInterr     0x35ec           0x24          36   
.text.__ascii_mbtowc        0x3610           0x24          36   
.text._sbrk_r               0x3634           0x24          36   
.text._close_r              0x3658           0x24          36   
.text._fstat_r              0x367c           0x24          36   
.text._isatty_r             0x36a0           0x24          36   
.text.pxPortInitialiseS     0x36c4           0x20          32   
.text.vTaskDelay            0x36e4           0x20          32   
.rodata                     0x3704           0x20          32  Read-only const 
.text._fputwc_r             0x3724           0x1e          30   
.text.APP3_Initialize       0x3742            0x2           2   
.text.vTaskPlaceOnEvent     0x3744           0x1c          28   
.text.pvTaskIncrementMu     0x3760           0x1c          28   
.text.APP2_Initialize       0x377c           0x1c          28   
.text.OSAL_MUTEX_Create     0x3798           0x1a          26   
.text.OSAL_MUTEX_Unlock     0x37b2           0x18          24   
.text.__malloc_lock         0x37ca            0x2           2   
.rodata.drvUsart0remapP     0x37cc           0x18          24   
.text.vPortYield            0x37e4           0x18          24   
.text.vPortEnterCritica     0x37fc           0x18          24   
.text.vTaskInternalSetT     0x3814           0x18          24   
.text.APP3_Tasks            0x382c           0x18          24   
.text.TC5_CompareStart      0x3844           0x18          24   
.text.TC5_CompareStop       0x385c           0x18          24   
.text.TC4_CompareStart      0x3874           0x18          24   
.text.TC4_CompareStop       0x388c           0x18          24   
.text                       0x38a4           0x18          24  App's exec code 
.text._vfprintf_cdnopux     0x38bc           0x18          24   
.text.__ascii_wctomb        0x38d4           0x18          24   
.text.vListInitialise       0x38ec           0x16          22   
.text.vListInsertEnd        0x3902           0x16          22   
.text.memchr                0x3918           0x16          22   
.text.__malloc_unlock       0x392e            0x2           2   
.rodata.drvUsart0remapD     0x3930           0x14          20   
.text.vPortExitCritical     0x3944           0x14          20   
.text.prvIsQueueEmpty       0x3958           0x14          20   
.text.xQueueCreateCount     0x396c           0x14          20   
.text.TC4_callBack          0x3980           0x14          20   
.text.TC5_callBack          0x3994           0x14          20   
.text.prvTaskExitError      0x39a8           0x12          18   
.text.uxQueueMessagesWa     0x39ba           0x12          18   
.text.memcpy                0x39cc           0x12          18   
.text._DRV_USART_TX_PLI     0x39de           0x10          16   
.text.SERCOM5_USART_Err     0x39f0           0x10          16   
.text.SERCOM5_USART_Rea     0x3a00           0x10          16   
.text.vTaskSuspendAll       0x3a10           0x10          16   
.text.memset                0x3a20           0x10          16   
.text._cleanup_r            0x3a30           0x10          16   
.text.__locale_mb_cur_m     0x3a40           0x10          16   
.text.main                  0x3a50            0xe          14   
.text                       0x3a5e            0xe          14  App's exec code 
.text.SERCOM5_USART_Wri     0x3a6c            0xc          12   
.text.SERCOM5_USART_Wri     0x3a78            0xc          12   
.text.SERCOM5_USART_Wri     0x3a84            0xc          12   
.text.SERCOM5_USART_Rea     0x3a90            0xc          12   
.text.SERCOM5_USART_Rea     0x3a9c            0xc          12   
.rodata.drvUsart0remapE     0x3aa8            0xc          12   
.rodata.drvUsart0remapS     0x3ab4            0xc          12   
.text.vTaskMissedYield      0x3ac0            0xc          12   
.text.TC5_CompareCallba     0x3acc            0xc          12   
.text.TC4_CompareCallba     0x3ad8            0xc          12   
.text.__sclose              0x3ae4            0xc          12   
.text.fstat                 0x3af0            0xc          12   
.rodata                     0x3afc            0xb          11  Read-only const 
.text._APP1_Tasks           0x3b08            0x8           8   
.text._APP2_Tasks           0x3b10            0x8           8   
.text._APP3_Tasks           0x3b18            0x8           8   
.text.ulSetInterruptMas     0x3b20            0x8           8   
.rodata                     0x3b28            0x8           8  Read-only const 
.text._close                0x3b30            0x8           8   
.text._fstat                0x3b38            0x8           8   
.text._isatty               0x3b40            0x8           8   
.text._lseek                0x3b48            0x8           8   
.text._read                 0x3b50            0x8           8   
.text._write                0x3b58            0x8           8   
.text.close                 0x3b60            0x8           8   
.text.vClearInterruptMa     0x3b68            0x6           6   
.text.vListInitialiseIt     0x3b6e            0x6           6   
.text.vApplicationStack     0x3b74            0x4           4   
.text.vApplicationMallo     0x3b78            0x4           4   
.text                       0x3b7c            0x4           4  App's exec code 
.rodata._global_impure_     0x3b80            0x4           4   
.text.isatty                0x3b84            0x4           4   
.text.lseek                 0x3b88            0x4           4   
      Total ROM used  :      0x3b87       15239  5.8% of 0x40000
        --------------------------------------------------------------------------
         Total Program Memory used  :      0x3b87       15239  5.8% of 0x40000
        --------------------------------------------------------------------------


RAM Data-Memory Usage
section                    address  length [bytes]      (dec)  Description
-------                 ----------  -------------------------  -----------
.bss                    0x20000000            0x4           4  Uninitialized data 
.bss.ucHeap             0x20000004         0x1000        4096   
.data.__global_locale   0x20001004          0x16c         364   
.bss.pxReadyTasksLists  0x20001170           0x64         100   
.data.impure_data       0x200011d4           0x60          96   
.bss.gDrvUSARTObj       0x20001234           0x5c          92   
.bss.sercom5USARTObj    0x20001290           0x30          48   
.bss.app1Data           0x200012c0           0x30          48   
.bss.app2Data           0x200012f0           0x30          48   
.bss.drvUSART0ClientObj 0x20001320           0x20          32   
.bss.__sf_fake_stderr   0x20001340           0x20          32   
.bss.__sf_fake_stdin    0x20001360           0x20          32   
.bss.__sf_fake_stdout   0x20001380           0x20          32   
.bss                    0x200013a0           0x1c          28  Uninitialized data 
.bss.xDelayedTaskList1  0x200013bc           0x14          20   
.bss.xDelayedTaskList2  0x200013d0           0x14          20   
.bss.xPendingReadyList  0x200013e4           0x14          20   
.bss.xSuspendedTaskList 0x200013f8           0x14          20   
.bss.xTasksWaitingTermi 0x2000140c           0x14          20   
.bss.TC5_CallbackObject 0x20001420            0x8           8   
.bss.TC4_CallbackObject 0x20001428            0x8           8   
.bss.sysObj             0x20001430            0x4           4   
.bss.xAPP1_Tasks        0x20001434            0x4           4   
.bss.xAPP2_Tasks        0x20001438            0x4           4   
.bss.xAPP3_Tasks        0x2000143c            0x4           4   
.data.uxCriticalNesting 0x20001440            0x4           4   
.bss.pucAlignedHeap.523 0x20001444            0x4           4   
.bss.xNextFreeByte      0x20001448            0x4           4   
.bss.pxCurrentTCB       0x2000144c            0x4           4   
.bss.pxDelayedTaskList  0x20001450            0x4           4   
.bss.pxOverflowDelayedT 0x20001454            0x4           4   
.bss.uxCurrentNumberOfT 0x20001458            0x4           4   
.bss.uxDeletedTasksWait 0x2000145c            0x4           4   
.bss.uxSchedulerSuspend 0x20001460            0x4           4   
.bss.uxTaskNumber       0x20001464            0x4           4   
.bss.uxTopReadyPriority 0x20001468            0x4           4   
.bss.xIdleTaskHandle    0x2000146c            0x4           4   
.bss.xNextTaskUnblockTi 0x20001470            0x4           4   
.bss.xNumOfOverflows    0x20001474            0x4           4   
.bss.xPendedTicks       0x20001478            0x4           4   
.bss.xSchedulerRunning  0x2000147c            0x4           4   
.bss.xTickCount         0x20001480            0x4           4   
.bss.xYieldPending      0x20001484            0x4           4   
.bss.eventQueue         0x20001488            0x4           4   
.bss.times              0x2000148c            0x4           4   
.bss                    0x20001490            0x4           4  Uninitialized data 
.data._impure_ptr       0x20001494            0x4           4   
.bss.__malloc_free_list 0x20001498            0x4           4   
.bss.__malloc_sbrk_star 0x2000149c            0x4           4   
.bss                    0x200014a0            0x4           4  Uninitialized data 
.bss.BT2_Press          0x200014a4            0x1           1   
.bss.TC4_active         0x200014a5            0x1           1   
.bss.BT3_Press          0x200014a6            0x1           1   
.bss.TC5_active         0x200014a7            0x1           1   
         Total RAM used  :      0x14a8        5288  16.1% of 0x8000
        --------------------------------------------------------------------------
            Total Data Memory used  :      0x14a8        5288  16.1% of 0x8000
        --------------------------------------------------------------------------


Dynamic Data-Memory Reservation
section                    address  length [bytes]      (dec)  Description
-------                 ----------  -------------------------  -----------
heap                    0x200014b0          0x200         512  Reserved for heap 
stack                   0x200016c8         0x6930       26928  Reserved for stack 

        --------------------------------------------------------------------------

Discarded input sections

 .text          0x00000000        0x0 c:/program files/microchip/xc32/v3.01/bin/bin/../../lib/gcc/pic32c/8.3.1/thumb/v6-m/nofp/crti.o
 .data          0x00000000        0x0 c:/program files/microchip/xc32/v3.01/bin/bin/../../lib/gcc/pic32c/8.3.1/thumb/v6-m/nofp/crti.o
 .bss           0x00000000        0x0 c:/program files/microchip/xc32/v3.01/bin/bin/../../lib/gcc/pic32c/8.3.1/thumb/v6-m/nofp/crti.o
 .xc_stack_usage.hdr
                0x00000000        0xe c:/program files/microchip/xc32/v3.01/bin/bin/../../lib/gcc/pic32c/8.3.1/thumb/v6-m/nofp/crti.o
 .xc_stack_usage
                0x00000000       0x26 c:/program files/microchip/xc32/v3.01/bin/bin/../../lib/gcc/pic32c/8.3.1/thumb/v6-m/nofp/crti.o
 .data          0x00000000        0x4 c:/program files/microchip/xc32/v3.01/bin/bin/../../lib/gcc/pic32c/8.3.1/thumb/v6-m/nofp/crtbegin.o
 .xc_stack_usage
                0x00000000       0x3c c:/program files/microchip/xc32/v3.01/bin/bin/../../lib/gcc/pic32c/8.3.1/thumb/v6-m/nofp/crtbegin.o
 .xc_stack_usage.hdr
                0x00000000        0xe c:/program files/microchip/xc32/v3.01/bin/bin/../../lib/gcc/pic32c/8.3.1/thumb/v6-m/nofp/crtbegin.o
 .text          0x00000000        0x0 build/default/production/_ext/869808652/drv_usart.o
 .data          0x00000000        0x0 build/default/production/_ext/869808652/drv_usart.o
 .bss           0x00000000        0x0 build/default/production/_ext/869808652/drv_usart.o
 .text.DRV_USART_Status
                0x00000000       0x14 build/default/production/_ext/869808652/drv_usart.o
 .text.DRV_USART_SerialSetup
                0x00000000       0x6c build/default/production/_ext/869808652/drv_usart.o
 .text.DRV_USART_Close
                0x00000000       0x38 build/default/production/_ext/869808652/drv_usart.o
 .text.DRV_USART_ErrorGet
                0x00000000       0x12 build/default/production/_ext/869808652/drv_usart.o
 .text.DRV_USART_ReadBuffer
                0x00000000       0x94 build/default/production/_ext/869808652/drv_usart.o
 .text          0x00000000        0x0 build/default/production/_ext/1529399856/osal_freertos.o
 .data          0x00000000        0x0 build/default/production/_ext/1529399856/osal_freertos.o
 .bss           0x00000000        0x0 build/default/production/_ext/1529399856/osal_freertos.o
 .text.OSAL_CRIT_Enter
                0x00000000       0x1a build/default/production/_ext/1529399856/osal_freertos.o
 .text.OSAL_CRIT_Leave
                0x00000000       0x18 build/default/production/_ext/1529399856/osal_freertos.o
 .text.OSAL_SEM_Delete
                0x00000000       0x12 build/default/production/_ext/1529399856/osal_freertos.o
 .text.OSAL_SEM_Post
                0x00000000       0x18 build/default/production/_ext/1529399856/osal_freertos.o
 .text.OSAL_SEM_GetCount
                0x00000000       0x12 build/default/production/_ext/1529399856/osal_freertos.o
 .text.OSAL_MUTEX_Delete
                0x00000000       0x1a build/default/production/_ext/1529399856/osal_freertos.o
 .text.OSAL_Malloc
                0x00000000        0x8 build/default/production/_ext/1529399856/osal_freertos.o
 .text.OSAL_Free
                0x00000000        0x8 build/default/production/_ext/1529399856/osal_freertos.o
 .text.OSAL_Initialize
                0x00000000        0x4 build/default/production/_ext/1529399856/osal_freertos.o
 .text          0x00000000        0x0 build/default/production/_ext/1984496892/plib_clock.o
 .data          0x00000000        0x0 build/default/production/_ext/1984496892/plib_clock.o
 .bss           0x00000000        0x0 build/default/production/_ext/1984496892/plib_clock.o
 .text          0x00000000        0x0 build/default/production/_ext/1986646378/plib_evsys.o
 .data          0x00000000        0x0 build/default/production/_ext/1986646378/plib_evsys.o
 .bss           0x00000000        0x0 build/default/production/_ext/1986646378/plib_evsys.o
 .text          0x00000000        0x0 build/default/production/_ext/1865468468/plib_nvic.o
 .data          0x00000000        0x0 build/default/production/_ext/1865468468/plib_nvic.o
 .bss           0x00000000        0x0 build/default/production/_ext/1865468468/plib_nvic.o
 .text.NVIC_INT_Enable
                0x00000000        0x8 build/default/production/_ext/1865468468/plib_nvic.o
 .text.NVIC_INT_Disable
                0x00000000       0x12 build/default/production/_ext/1865468468/plib_nvic.o
 .text.NVIC_INT_Restore
                0x00000000       0x14 build/default/production/_ext/1865468468/plib_nvic.o
 .text          0x00000000        0x0 build/default/production/_ext/1593096446/plib_nvmctrl.o
 .data          0x00000000        0x0 build/default/production/_ext/1593096446/plib_nvmctrl.o
 .bss           0x00000000        0x0 build/default/production/_ext/1593096446/plib_nvmctrl.o
 .text.NVMCTRL_CacheInvalidate
                0x00000000       0x10 build/default/production/_ext/1593096446/plib_nvmctrl.o
 .text.NVMCTRL_Read
                0x00000000       0x10 build/default/production/_ext/1593096446/plib_nvmctrl.o
 .text.NVMCTRL_PageWrite
                0x00000000       0x30 build/default/production/_ext/1593096446/plib_nvmctrl.o
 .text.NVMCTRL_RowErase
                0x00000000       0x18 build/default/production/_ext/1593096446/plib_nvmctrl.o
 .text.NVMCTRL_ErrorGet
                0x00000000       0x28 build/default/production/_ext/1593096446/plib_nvmctrl.o
 .text.NVMCTRL_IsBusy
                0x00000000       0x14 build/default/production/_ext/1593096446/plib_nvmctrl.o
 .text.NVMCTRL_RegionLock
                0x00000000       0x14 build/default/production/_ext/1593096446/plib_nvmctrl.o
 .text.NVMCTRL_RegionUnlock
                0x00000000       0x14 build/default/production/_ext/1593096446/plib_nvmctrl.o
 .text          0x00000000        0x0 build/default/production/_ext/1865521619/plib_port.o
 .data          0x00000000        0x0 build/default/production/_ext/1865521619/plib_port.o
 .bss           0x00000000        0x0 build/default/production/_ext/1865521619/plib_port.o
 .text.PORT_GroupRead
                0x00000000        0x4 build/default/production/_ext/1865521619/plib_port.o
 .text.PORT_GroupWrite
                0x00000000        0xc build/default/production/_ext/1865521619/plib_port.o
 .text.PORT_GroupLatchRead
                0x00000000        0x4 build/default/production/_ext/1865521619/plib_port.o
 .text.PORT_GroupSet
                0x00000000        0x4 build/default/production/_ext/1865521619/plib_port.o
 .text.PORT_GroupClear
                0x00000000        0x4 build/default/production/_ext/1865521619/plib_port.o
 .text.PORT_GroupToggle
                0x00000000        0x4 build/default/production/_ext/1865521619/plib_port.o
 .text.PORT_GroupInputEnable
                0x00000000        0x4 build/default/production/_ext/1865521619/plib_port.o
 .text.PORT_GroupOutputEnable
                0x00000000        0x4 build/default/production/_ext/1865521619/plib_port.o
 .text.PORT_PinPeripheralFunctionConfig
                0x00000000       0x48 build/default/production/_ext/1865521619/plib_port.o
 .text.PORT_PinGPIOConfig
                0x00000000       0x20 build/default/production/_ext/1865521619/plib_port.o
 .text          0x00000000        0x0 build/default/production/_ext/504274921/plib_sercom5_usart.o
 .data          0x00000000        0x0 build/default/production/_ext/504274921/plib_sercom5_usart.o
 .bss           0x00000000        0x0 build/default/production/_ext/504274921/plib_sercom5_usart.o
 .text.SERCOM5_USART_FrequencyGet
                0x00000000        0x8 build/default/production/_ext/504274921/plib_sercom5_usart.o
 .text.SERCOM5_USART_TransmitterEnable
                0x00000000       0x18 build/default/production/_ext/504274921/plib_sercom5_usart.o
 .text.SERCOM5_USART_TransmitterDisable
                0x00000000       0x1c build/default/production/_ext/504274921/plib_sercom5_usart.o
 .text.SERCOM5_USART_ReceiverEnable
                0x00000000       0x18 build/default/production/_ext/504274921/plib_sercom5_usart.o
 .text.SERCOM5_USART_ReceiverDisable
                0x00000000       0x1c build/default/production/_ext/504274921/plib_sercom5_usart.o
 .text          0x00000000        0x0 build/default/production/_ext/163028504/xc32_monitor.o
 .data          0x00000000        0x0 build/default/production/_ext/163028504/xc32_monitor.o
 .bss           0x00000000        0x0 build/default/production/_ext/163028504/xc32_monitor.o
 .text          0x00000000        0x0 build/default/production/_ext/14461671/sys_dma.o
 .data          0x00000000        0x0 build/default/production/_ext/14461671/sys_dma.o
 .bss           0x00000000        0x0 build/default/production/_ext/14461671/sys_dma.o
 .text.SYS_DMA_AddressingModeSetup
                0x00000000        0x2 build/default/production/_ext/14461671/sys_dma.o
 .text          0x00000000        0x0 build/default/production/_ext/1881668453/sys_int.o
 .data          0x00000000        0x0 build/default/production/_ext/1881668453/sys_int.o
 .bss           0x00000000        0x0 build/default/production/_ext/1881668453/sys_int.o
 .text.SYS_INT_Enable
                0x00000000        0x8 build/default/production/_ext/1881668453/sys_int.o
 .text.SYS_INT_Disable
                0x00000000        0x8 build/default/production/_ext/1881668453/sys_int.o
 .text.SYS_INT_Restore
                0x00000000        0x8 build/default/production/_ext/1881668453/sys_int.o
 .text.SYS_INT_SourceDisable
                0x00000000       0x3c build/default/production/_ext/1881668453/sys_int.o
 .text.SYS_INT_SourceRestore
                0x00000000       0x1c build/default/production/_ext/1881668453/sys_int.o
 .debug_info    0x00000000      0x9f7 build/default/production/_ext/1881668453/sys_int.o
 .debug_abbrev  0x00000000      0x246 build/default/production/_ext/1881668453/sys_int.o
 .debug_loc     0x00000000      0x17d build/default/production/_ext/1881668453/sys_int.o
 .debug_aranges
                0x00000000       0x40 build/default/production/_ext/1881668453/sys_int.o
 .debug_ranges  0x00000000       0x48 build/default/production/_ext/1881668453/sys_int.o
 .debug_line    0x00000000      0x30f build/default/production/_ext/1881668453/sys_int.o
 .debug_str     0x00000000       0x32 build/default/production/_ext/1881668453/sys_int.o
 .comment       0x00000000       0x54 build/default/production/_ext/1881668453/sys_int.o
 .debug_frame   0x00000000       0x84 build/default/production/_ext/1881668453/sys_int.o
 .ARM.attributes
                0x00000000       0x2c build/default/production/_ext/1881668453/sys_int.o
 .text          0x00000000        0x0 build/default/production/_ext/1171490990/initialization.o
 .data          0x00000000        0x0 build/default/production/_ext/1171490990/initialization.o
 .bss           0x00000000        0x0 build/default/production/_ext/1171490990/initialization.o
 .text          0x00000000        0x0 build/default/production/_ext/1171490990/interrupts.o
 .data          0x00000000        0x0 build/default/production/_ext/1171490990/interrupts.o
 .bss           0x00000000        0x0 build/default/production/_ext/1171490990/interrupts.o
 .text          0x00000000        0x0 build/default/production/_ext/1171490990/exceptions.o
 .data          0x00000000        0x0 build/default/production/_ext/1171490990/exceptions.o
 .bss           0x00000000        0x0 build/default/production/_ext/1171490990/exceptions.o
 .text          0x00000000        0x0 build/default/production/_ext/1171490990/startup_xc32.o
 .data          0x00000000        0x0 build/default/production/_ext/1171490990/startup_xc32.o
 .bss           0x00000000        0x0 build/default/production/_ext/1171490990/startup_xc32.o
 .text          0x00000000        0x0 build/default/production/_ext/1171490990/libc_syscalls.o
 .data          0x00000000        0x0 build/default/production/_ext/1171490990/libc_syscalls.o
 .bss           0x00000000        0x0 build/default/production/_ext/1171490990/libc_syscalls.o
 .text._exit    0x00000000        0x2 build/default/production/_ext/1171490990/libc_syscalls.o
 .debug_info    0x00000000      0xf40 build/default/production/_ext/1171490990/libc_syscalls.o
 .debug_abbrev  0x00000000      0x1cc build/default/production/_ext/1171490990/libc_syscalls.o
 .debug_loc     0x00000000       0x15 build/default/production/_ext/1171490990/libc_syscalls.o
 .debug_aranges
                0x00000000       0x20 build/default/production/_ext/1171490990/libc_syscalls.o
 .debug_ranges  0x00000000       0x10 build/default/production/_ext/1171490990/libc_syscalls.o
 .debug_line    0x00000000      0x143 build/default/production/_ext/1171490990/libc_syscalls.o
 .debug_str     0x00000000        0xe build/default/production/_ext/1171490990/libc_syscalls.o
 .comment       0x00000000       0x54 build/default/production/_ext/1171490990/libc_syscalls.o
 .debug_frame   0x00000000       0x20 build/default/production/_ext/1171490990/libc_syscalls.o
 .ARM.attributes
                0x00000000       0x2c build/default/production/_ext/1171490990/libc_syscalls.o
 .text          0x00000000        0x0 build/default/production/_ext/1171490990/freertos_hooks.o
 .data          0x00000000        0x0 build/default/production/_ext/1171490990/freertos_hooks.o
 .bss           0x00000000        0x0 build/default/production/_ext/1171490990/freertos_hooks.o
 .text.vApplicationIdleHook
                0x00000000        0x2 build/default/production/_ext/1171490990/freertos_hooks.o
 .text.vApplicationTickHook
                0x00000000        0x2 build/default/production/_ext/1171490990/freertos_hooks.o
 .text.vAssertCalled
                0x00000000       0x1a build/default/production/_ext/1171490990/freertos_hooks.o
 .text          0x00000000        0x0 build/default/production/_ext/1171490990/tasks.o
 .data          0x00000000        0x0 build/default/production/_ext/1171490990/tasks.o
 .bss           0x00000000        0x0 build/default/production/_ext/1171490990/tasks.o
 .text          0x00000000        0x0 build/default/production/_ext/1624415188/port.o
 .data          0x00000000        0x0 build/default/production/_ext/1624415188/port.o
 .bss           0x00000000        0x0 build/default/production/_ext/1624415188/port.o
 .text.vPortEndScheduler
                0x00000000        0x2 build/default/production/_ext/1624415188/port.o
 .text          0x00000000        0x0 build/default/production/_ext/1665200909/heap_1.o
 .data          0x00000000        0x0 build/default/production/_ext/1665200909/heap_1.o
 .bss           0x00000000        0x0 build/default/production/_ext/1665200909/heap_1.o
 .text.vPortInitialiseBlocks
                0x00000000        0xc build/default/production/_ext/1665200909/heap_1.o
 .text.xPortGetFreeHeapSize
                0x00000000       0x14 build/default/production/_ext/1665200909/heap_1.o
 .text          0x00000000        0x0 build/default/production/_ext/404212886/croutine.o
 .data          0x00000000        0x0 build/default/production/_ext/404212886/croutine.o
 .bss           0x00000000        0x0 build/default/production/_ext/404212886/croutine.o
 .debug_info    0x00000000      0x32b build/default/production/_ext/404212886/croutine.o
 .debug_abbrev  0x00000000       0x1b build/default/production/_ext/404212886/croutine.o
 .debug_aranges
                0x00000000       0x18 build/default/production/_ext/404212886/croutine.o
 .debug_line    0x00000000       0x1d build/default/production/_ext/404212886/croutine.o
 .debug_str     0x00000000        0x0 build/default/production/_ext/404212886/croutine.o
 .comment       0x00000000       0x54 build/default/production/_ext/404212886/croutine.o
 .ARM.attributes
                0x00000000       0x32 build/default/production/_ext/404212886/croutine.o
 .text          0x00000000        0x0 build/default/production/_ext/404212886/list.o
 .data          0x00000000        0x0 build/default/production/_ext/404212886/list.o
 .bss           0x00000000        0x0 build/default/production/_ext/404212886/list.o
 .text          0x00000000        0x0 build/default/production/_ext/404212886/queue.o
 .data          0x00000000        0x0 build/default/production/_ext/404212886/queue.o
 .bss           0x00000000        0x0 build/default/production/_ext/404212886/queue.o
 .text.xQueueGenericSendFromISR
                0x00000000       0x72 build/default/production/_ext/404212886/queue.o
 .text.xQueuePeek
                0x00000000       0xea build/default/production/_ext/404212886/queue.o
 .text.xQueueReceiveFromISR
                0x00000000       0x6a build/default/production/_ext/404212886/queue.o
 .text.xQueuePeekFromISR
                0x00000000       0x2e build/default/production/_ext/404212886/queue.o
 .text.uxQueueSpacesAvailable
                0x00000000       0x16 build/default/production/_ext/404212886/queue.o
 .text.uxQueueMessagesWaitingFromISR
                0x00000000        0x4 build/default/production/_ext/404212886/queue.o
 .text.vQueueDelete
                0x00000000        0x8 build/default/production/_ext/404212886/queue.o
 .text.xQueueIsQueueEmptyFromISR
                0x00000000        0x8 build/default/production/_ext/404212886/queue.o
 .text.xQueueIsQueueFullFromISR
                0x00000000        0xc build/default/production/_ext/404212886/queue.o
 .text          0x00000000        0x0 build/default/production/_ext/404212886/FreeRTOS_tasks.o
 .data          0x00000000        0x0 build/default/production/_ext/404212886/FreeRTOS_tasks.o
 .bss           0x00000000        0x0 build/default/production/_ext/404212886/FreeRTOS_tasks.o
 .text.vTaskDelete
                0x00000000       0x98 build/default/production/_ext/404212886/FreeRTOS_tasks.o
 .text.uxTaskPriorityGet
                0x00000000       0x20 build/default/production/_ext/404212886/FreeRTOS_tasks.o
 .text.uxTaskPriorityGetFromISR
                0x00000000       0x20 build/default/production/_ext/404212886/FreeRTOS_tasks.o
 .text.vTaskPrioritySet
                0x00000000       0xb4 build/default/production/_ext/404212886/FreeRTOS_tasks.o
 .text.vTaskResume
                0x00000000       0x7c build/default/production/_ext/404212886/FreeRTOS_tasks.o
 .text.vTaskEndScheduler
                0x00000000       0x14 build/default/production/_ext/404212886/FreeRTOS_tasks.o
 .text.xTaskGetTickCount
                0x00000000        0xc build/default/production/_ext/404212886/FreeRTOS_tasks.o
 .text.xTaskGetTickCountFromISR
                0x00000000        0xc build/default/production/_ext/404212886/FreeRTOS_tasks.o
 .text.uxTaskGetNumberOfTasks
                0x00000000        0xc build/default/production/_ext/404212886/FreeRTOS_tasks.o
 .text.pcTaskGetName
                0x00000000       0x14 build/default/production/_ext/404212886/FreeRTOS_tasks.o
 .text.vTaskDelayUntil
                0x00000000       0x54 build/default/production/_ext/404212886/FreeRTOS_tasks.o
 .text.xTaskCatchUpTicks
                0x00000000       0x1c build/default/production/_ext/404212886/FreeRTOS_tasks.o
 .text.vTaskSuspend
                0x00000000       0x9c build/default/production/_ext/404212886/FreeRTOS_tasks.o
 .text.vTaskPlaceOnUnorderedEventList
                0x00000000       0x28 build/default/production/_ext/404212886/FreeRTOS_tasks.o
 .text.vTaskRemoveFromUnorderedEventList
                0x00000000       0x5c build/default/production/_ext/404212886/FreeRTOS_tasks.o
 .text.vTaskSetTimeOutState
                0x00000000       0x24 build/default/production/_ext/404212886/FreeRTOS_tasks.o
 .text.xTaskGetCurrentTaskHandle
                0x00000000        0xc build/default/production/_ext/404212886/FreeRTOS_tasks.o
 .text.uxTaskResetEventItemValue
                0x00000000       0x18 build/default/production/_ext/404212886/FreeRTOS_tasks.o
 .text.ulTaskNotifyTake
                0x00000000       0x6c build/default/production/_ext/404212886/FreeRTOS_tasks.o
 .text.xTaskNotifyWait
                0x00000000       0x84 build/default/production/_ext/404212886/FreeRTOS_tasks.o
 .text.xTaskGenericNotify
                0x00000000       0xa4 build/default/production/_ext/404212886/FreeRTOS_tasks.o
 .text.xTaskGenericNotifyFromISR
                0x00000000       0xdc build/default/production/_ext/404212886/FreeRTOS_tasks.o
 .text.vTaskNotifyGiveFromISR
                0x00000000       0x94 build/default/production/_ext/404212886/FreeRTOS_tasks.o
 .text.xTaskNotifyStateClear
                0x00000000       0x30 build/default/production/_ext/404212886/FreeRTOS_tasks.o
 .text.ulTaskNotifyValueClear
                0x00000000       0x2c build/default/production/_ext/404212886/FreeRTOS_tasks.o
 .text          0x00000000        0x0 build/default/production/_ext/404212886/timers.o
 .data          0x00000000        0x0 build/default/production/_ext/404212886/timers.o
 .bss           0x00000000        0x0 build/default/production/_ext/404212886/timers.o
 .debug_info    0x00000000      0xed8 build/default/production/_ext/404212886/timers.o
 .debug_abbrev  0x00000000      0x195 build/default/production/_ext/404212886/timers.o
 .debug_aranges
                0x00000000       0x18 build/default/production/_ext/404212886/timers.o
 .debug_line    0x00000000      0x107 build/default/production/_ext/404212886/timers.o
 .debug_str     0x00000000        0xe build/default/production/_ext/404212886/timers.o
 .comment       0x00000000       0x54 build/default/production/_ext/404212886/timers.o
 .ARM.attributes
                0x00000000       0x32 build/default/production/_ext/404212886/timers.o
 .text          0x00000000        0x0 build/default/production/_ext/404212886/event_groups.o
 .data          0x00000000        0x0 build/default/production/_ext/404212886/event_groups.o
 .bss           0x00000000        0x0 build/default/production/_ext/404212886/event_groups.o
 .text.xEventGroupCreate
                0x00000000       0x18 build/default/production/_ext/404212886/event_groups.o
 .text.xEventGroupWaitBits
                0x00000000       0xbc build/default/production/_ext/404212886/event_groups.o
 .text.xEventGroupClearBits
                0x00000000       0x1a build/default/production/_ext/404212886/event_groups.o
 .text.xEventGroupGetBitsFromISR
                0x00000000       0x12 build/default/production/_ext/404212886/event_groups.o
 .text.xEventGroupSetBits
                0x00000000       0x8c build/default/production/_ext/404212886/event_groups.o
 .text.xEventGroupSync
                0x00000000       0x86 build/default/production/_ext/404212886/event_groups.o
 .text.vEventGroupDelete
                0x00000000       0x2c build/default/production/_ext/404212886/event_groups.o
 .text.vEventGroupSetBitsCallback
                0x00000000        0x8 build/default/production/_ext/404212886/event_groups.o
 .text.vEventGroupClearBitsCallback
                0x00000000        0x8 build/default/production/_ext/404212886/event_groups.o
 .debug_info    0x00000000     0x1adf build/default/production/_ext/404212886/event_groups.o
 .debug_abbrev  0x00000000      0x35f build/default/production/_ext/404212886/event_groups.o
 .debug_loc     0x00000000      0xcfa build/default/production/_ext/404212886/event_groups.o
 .debug_aranges
                0x00000000       0x60 build/default/production/_ext/404212886/event_groups.o
 .debug_ranges  0x00000000       0x98 build/default/production/_ext/404212886/event_groups.o
 .debug_line    0x00000000      0x6d5 build/default/production/_ext/404212886/event_groups.o
 .debug_str     0x00000000      0x1fa build/default/production/_ext/404212886/event_groups.o
 .comment       0x00000000       0x54 build/default/production/_ext/404212886/event_groups.o
 .debug_frame   0x00000000      0x114 build/default/production/_ext/404212886/event_groups.o
 .ARM.attributes
                0x00000000       0x2c build/default/production/_ext/404212886/event_groups.o
 .text          0x00000000        0x0 build/default/production/_ext/404212886/stream_buffer.o
 .data          0x00000000        0x0 build/default/production/_ext/404212886/stream_buffer.o
 .bss           0x00000000        0x0 build/default/production/_ext/404212886/stream_buffer.o
 .text.prvBytesInBuffer
                0x00000000       0x12 build/default/production/_ext/404212886/stream_buffer.o
 .text.prvWriteBytesToBuffer
                0x00000000       0x46 build/default/production/_ext/404212886/stream_buffer.o
 .text.prvReadBytesFromBuffer
                0x00000000       0x52 build/default/production/_ext/404212886/stream_buffer.o
 .text.xStreamBufferGenericCreate
                0x00000000       0x3a build/default/production/_ext/404212886/stream_buffer.o
 .text.vStreamBufferDelete
                0x00000000       0x18 build/default/production/_ext/404212886/stream_buffer.o
 .text.xStreamBufferReset
                0x00000000       0x48 build/default/production/_ext/404212886/stream_buffer.o
 .text.xStreamBufferSetTriggerLevel
                0x00000000       0x16 build/default/production/_ext/404212886/stream_buffer.o
 .text.xStreamBufferSpacesAvailable
                0x00000000       0x14 build/default/production/_ext/404212886/stream_buffer.o
 .text.xStreamBufferBytesAvailable
                0x00000000        0x8 build/default/production/_ext/404212886/stream_buffer.o
 .text.xStreamBufferSend
                0x00000000       0xd6 build/default/production/_ext/404212886/stream_buffer.o
 .text.xStreamBufferSendFromISR
                0x00000000       0x88 build/default/production/_ext/404212886/stream_buffer.o
 .text.xStreamBufferReceive
                0x00000000       0xc0 build/default/production/_ext/404212886/stream_buffer.o
 .text.xStreamBufferNextMessageLengthBytes
                0x00000000       0x32 build/default/production/_ext/404212886/stream_buffer.o
 .text.xStreamBufferReceiveFromISR
                0x00000000       0x8e build/default/production/_ext/404212886/stream_buffer.o
 .text.xStreamBufferIsEmpty
                0x00000000        0xc build/default/production/_ext/404212886/stream_buffer.o
 .text.xStreamBufferIsFull
                0x00000000       0x18 build/default/production/_ext/404212886/stream_buffer.o
 .text.xStreamBufferSendCompletedFromISR
                0x00000000       0x36 build/default/production/_ext/404212886/stream_buffer.o
 .text.xStreamBufferReceiveCompletedFromISR
                0x00000000       0x36 build/default/production/_ext/404212886/stream_buffer.o
 .debug_info    0x00000000     0x2806 build/default/production/_ext/404212886/stream_buffer.o
 .debug_abbrev  0x00000000      0x43f build/default/production/_ext/404212886/stream_buffer.o
 .debug_loc     0x00000000     0x1c1f build/default/production/_ext/404212886/stream_buffer.o
 .debug_aranges
                0x00000000       0xa8 build/default/production/_ext/404212886/stream_buffer.o
 .debug_ranges  0x00000000      0x130 build/default/production/_ext/404212886/stream_buffer.o
 .debug_line    0x00000000      0xb7c build/default/production/_ext/404212886/stream_buffer.o
 .debug_str     0x00000000      0x277 build/default/production/_ext/404212886/stream_buffer.o
 .comment       0x00000000       0x54 build/default/production/_ext/404212886/stream_buffer.o
 .debug_frame   0x00000000      0x200 build/default/production/_ext/404212886/stream_buffer.o
 .ARM.attributes
                0x00000000       0x2c build/default/production/_ext/404212886/stream_buffer.o
 .text          0x00000000        0x0 build/default/production/_ext/1360937237/main_d21.o
 .data          0x00000000        0x0 build/default/production/_ext/1360937237/main_d21.o
 .bss           0x00000000        0x0 build/default/production/_ext/1360937237/main_d21.o
 .text          0x00000000        0x0 build/default/production/_ext/1360937237/app1.o
 .data          0x00000000        0x0 build/default/production/_ext/1360937237/app1.o
 .bss           0x00000000        0x0 build/default/production/_ext/1360937237/app1.o
 .text          0x00000000        0x0 build/default/production/_ext/1360937237/app2.o
 .data          0x00000000        0x0 build/default/production/_ext/1360937237/app2.o
 .bss           0x00000000        0x0 build/default/production/_ext/1360937237/app2.o
 .text          0x00000000        0x0 build/default/production/_ext/1360937237/app3.o
 .data          0x00000000        0x0 build/default/production/_ext/1360937237/app3.o
 .bss           0x00000000        0x0 build/default/production/_ext/1360937237/app3.o
 .text          0x00000000        0x0 build/default/production/_ext/829342655/plib_tc5.o
 .data          0x00000000        0x0 build/default/production/_ext/829342655/plib_tc5.o
 .bss           0x00000000        0x0 build/default/production/_ext/829342655/plib_tc5.o
 .text.TC5_CompareFrequencyGet
                0x00000000        0x8 build/default/production/_ext/829342655/plib_tc5.o
 .text.TC5_CompareCommandSet
                0x00000000       0x18 build/default/production/_ext/829342655/plib_tc5.o
 .text.TC5_Compare16bitCounterGet
                0x00000000       0x20 build/default/production/_ext/829342655/plib_tc5.o
 .text.TC5_Compare16bitCounterSet
                0x00000000       0x14 build/default/production/_ext/829342655/plib_tc5.o
 .text.TC5_Compare16bitPeriodSet
                0x00000000       0x14 build/default/production/_ext/829342655/plib_tc5.o
 .text.TC5_Compare16bitPeriodGet
                0x00000000       0x20 build/default/production/_ext/829342655/plib_tc5.o
 .text.TC5_Compare16bitMatch0Set
                0x00000000       0x14 build/default/production/_ext/829342655/plib_tc5.o
 .text.TC5_Compare16bitMatch1Set
                0x00000000       0x14 build/default/production/_ext/829342655/plib_tc5.o
 .text          0x00000000        0x0 build/default/production/_ext/829342655/plib_tc4.o
 .data          0x00000000        0x0 build/default/production/_ext/829342655/plib_tc4.o
 .bss           0x00000000        0x0 build/default/production/_ext/829342655/plib_tc4.o
 .text.TC4_CompareFrequencyGet
                0x00000000        0x8 build/default/production/_ext/829342655/plib_tc4.o
 .text.TC4_CompareCommandSet
                0x00000000       0x18 build/default/production/_ext/829342655/plib_tc4.o
 .text.TC4_Compare16bitCounterGet
                0x00000000       0x20 build/default/production/_ext/829342655/plib_tc4.o
 .text.TC4_Compare16bitCounterSet
                0x00000000       0x14 build/default/production/_ext/829342655/plib_tc4.o
 .text.TC4_Compare16bitPeriodSet
                0x00000000       0x14 build/default/production/_ext/829342655/plib_tc4.o
 .text.TC4_Compare16bitPeriodGet
                0x00000000       0x20 build/default/production/_ext/829342655/plib_tc4.o
 .text.TC4_Compare16bitMatch0Set
                0x00000000       0x14 build/default/production/_ext/829342655/plib_tc4.o
 .text.TC4_Compare16bitMatch1Set
                0x00000000       0x14 build/default/production/_ext/829342655/plib_tc4.o
 .text          0x00000000        0x0 c:/program files/microchip/xc32/v3.01/bin/bin/../../lib/gcc/pic32c/8.3.1/../../../../pic32c/lib/thumb/v6-m/nofp\libpic32c.a(data_init.o)
 .data          0x00000000        0x0 c:/program files/microchip/xc32/v3.01/bin/bin/../../lib/gcc/pic32c/8.3.1/../../../../pic32c/lib/thumb/v6-m/nofp\libpic32c.a(data_init.o)
 .xc_stack_usage
                0x00000000       0x2a c:/program files/microchip/xc32/v3.01/bin/bin/../../lib/gcc/pic32c/8.3.1/../../../../pic32c/lib/thumb/v6-m/nofp\libpic32c.a(data_init.o)
 .xc_stack_usage.hdr
                0x00000000        0xe c:/program files/microchip/xc32/v3.01/bin/bin/../../lib/gcc/pic32c/8.3.1/../../../../pic32c/lib/thumb/v6-m/nofp\libpic32c.a(data_init.o)
 .data          0x00000000        0x0 c:/program files/microchip/xc32/v3.01/bin/bin/../../lib/gcc/pic32c/8.3.1/thumb/v6-m/nofp\libgcc.a(_aeabi_uldivmod.o)
 .bss           0x00000000        0x0 c:/program files/microchip/xc32/v3.01/bin/bin/../../lib/gcc/pic32c/8.3.1/thumb/v6-m/nofp\libgcc.a(_aeabi_uldivmod.o)
 .xc_stack_usage.hdr
                0x00000000        0xe c:/program files/microchip/xc32/v3.01/bin/bin/../../lib/gcc/pic32c/8.3.1/thumb/v6-m/nofp\libgcc.a(_aeabi_uldivmod.o)
 .xc_stack_usage
                0x00000000       0x1e c:/program files/microchip/xc32/v3.01/bin/bin/../../lib/gcc/pic32c/8.3.1/thumb/v6-m/nofp\libgcc.a(_aeabi_uldivmod.o)
 .data          0x00000000        0x0 c:/program files/microchip/xc32/v3.01/bin/bin/../../lib/gcc/pic32c/8.3.1/thumb/v6-m/nofp\libgcc.a(_udivmoddi4.o)
 .bss           0x00000000        0x0 c:/program files/microchip/xc32/v3.01/bin/bin/../../lib/gcc/pic32c/8.3.1/thumb/v6-m/nofp\libgcc.a(_udivmoddi4.o)
 .xc_stack_usage
                0x00000000       0x1a c:/program files/microchip/xc32/v3.01/bin/bin/../../lib/gcc/pic32c/8.3.1/thumb/v6-m/nofp\libgcc.a(_udivmoddi4.o)
 .ARM.extab     0x00000000        0x0 c:/program files/microchip/xc32/v3.01/bin/bin/../../lib/gcc/pic32c/8.3.1/thumb/v6-m/nofp\libgcc.a(_udivmoddi4.o)
 .xc_stack_usage.hdr
                0x00000000        0xe c:/program files/microchip/xc32/v3.01/bin/bin/../../lib/gcc/pic32c/8.3.1/thumb/v6-m/nofp\libgcc.a(_udivmoddi4.o)
 .data          0x00000000        0x0 c:/program files/microchip/xc32/v3.01/bin/bin/../../lib/gcc/pic32c/8.3.1/thumb/v6-m/nofp\libgcc.a(_dvmd_tls.o)
 .bss           0x00000000        0x0 c:/program files/microchip/xc32/v3.01/bin/bin/../../lib/gcc/pic32c/8.3.1/thumb/v6-m/nofp\libgcc.a(_dvmd_tls.o)
 .xc_stack_usage.hdr
                0x00000000        0xe c:/program files/microchip/xc32/v3.01/bin/bin/../../lib/gcc/pic32c/8.3.1/thumb/v6-m/nofp\libgcc.a(_dvmd_tls.o)
 .xc_stack_usage
                0x00000000       0x36 c:/program files/microchip/xc32/v3.01/bin/bin/../../lib/gcc/pic32c/8.3.1/thumb/v6-m/nofp\libgcc.a(_dvmd_tls.o)
 .data          0x00000000        0x0 c:/program files/microchip/xc32/v3.01/bin/bin/../../lib/gcc/pic32c/8.3.1/thumb/v6-m/nofp\libgcc.a(_clzdi2.o)
 .bss           0x00000000        0x0 c:/program files/microchip/xc32/v3.01/bin/bin/../../lib/gcc/pic32c/8.3.1/thumb/v6-m/nofp\libgcc.a(_clzdi2.o)
 .xc_stack_usage.hdr
                0x00000000        0xe c:/program files/microchip/xc32/v3.01/bin/bin/../../lib/gcc/pic32c/8.3.1/thumb/v6-m/nofp\libgcc.a(_clzdi2.o)
 .xc_stack_usage
                0x00000000       0x16 c:/program files/microchip/xc32/v3.01/bin/bin/../../lib/gcc/pic32c/8.3.1/thumb/v6-m/nofp\libgcc.a(_clzdi2.o)
 .data          0x00000000        0x0 c:/program files/microchip/xc32/v3.01/bin/bin/../../lib/gcc/pic32c/8.3.1/thumb/v6-m/nofp\libgcc.a(_clzsi2.o)
 .bss           0x00000000        0x0 c:/program files/microchip/xc32/v3.01/bin/bin/../../lib/gcc/pic32c/8.3.1/thumb/v6-m/nofp\libgcc.a(_clzsi2.o)
 .xc_stack_usage.hdr
                0x00000000        0xe c:/program files/microchip/xc32/v3.01/bin/bin/../../lib/gcc/pic32c/8.3.1/thumb/v6-m/nofp\libgcc.a(_clzsi2.o)
 .xc_stack_usage
                0x00000000       0x16 c:/program files/microchip/xc32/v3.01/bin/bin/../../lib/gcc/pic32c/8.3.1/thumb/v6-m/nofp\libgcc.a(_clzsi2.o)
 .text          0x00000000        0x0 c:/program files/microchip/xc32/v3.01/bin/bin/../../lib/gcc/pic32c/8.3.1/../../../../pic32c/lib/thumb/v6-m/nofp\libc_nano.a(_lib_a-sprintf.cdnopuxX.o)
 .data          0x00000000        0x0 c:/program files/microchip/xc32/v3.01/bin/bin/../../lib/gcc/pic32c/8.3.1/../../../../pic32c/lib/thumb/v6-m/nofp\libc_nano.a(_lib_a-sprintf.cdnopuxX.o)
 .bss           0x00000000        0x0 c:/program files/microchip/xc32/v3.01/bin/bin/../../lib/gcc/pic32c/8.3.1/../../../../pic32c/lib/thumb/v6-m/nofp\libc_nano.a(_lib_a-sprintf.cdnopuxX.o)
 .xc_stack_usage
                0x00000000       0x1f c:/program files/microchip/xc32/v3.01/bin/bin/../../lib/gcc/pic32c/8.3.1/../../../../pic32c/lib/thumb/v6-m/nofp\libc_nano.a(_lib_a-sprintf.cdnopuxX.o)
 .xc_stack_usage.hdr
                0x00000000        0xe c:/program files/microchip/xc32/v3.01/bin/bin/../../lib/gcc/pic32c/8.3.1/../../../../pic32c/lib/thumb/v6-m/nofp\libc_nano.a(_lib_a-sprintf.cdnopuxX.o)
 .text          0x00000000        0x0 c:/program files/microchip/xc32/v3.01/bin/bin/../../lib/gcc/pic32c/8.3.1/../../../../pic32c/lib/thumb/v6-m/nofp\libc_nano.a(lib_a-init.o)
 .data          0x00000000        0x0 c:/program files/microchip/xc32/v3.01/bin/bin/../../lib/gcc/pic32c/8.3.1/../../../../pic32c/lib/thumb/v6-m/nofp\libc_nano.a(lib_a-init.o)
 .bss           0x00000000        0x0 c:/program files/microchip/xc32/v3.01/bin/bin/../../lib/gcc/pic32c/8.3.1/../../../../pic32c/lib/thumb/v6-m/nofp\libc_nano.a(lib_a-init.o)
 .xc_stack_usage
                0x00000000       0x1f c:/program files/microchip/xc32/v3.01/bin/bin/../../lib/gcc/pic32c/8.3.1/../../../../pic32c/lib/thumb/v6-m/nofp\libc_nano.a(lib_a-init.o)
 .xc_stack_usage.hdr
                0x00000000        0xe c:/program files/microchip/xc32/v3.01/bin/bin/../../lib/gcc/pic32c/8.3.1/../../../../pic32c/lib/thumb/v6-m/nofp\libc_nano.a(lib_a-init.o)
 .text          0x00000000        0x0 c:/program files/microchip/xc32/v3.01/bin/bin/../../lib/gcc/pic32c/8.3.1/../../../../pic32c/lib/thumb/v6-m/nofp\libc_nano.a(lib_a-memcpy-stub.o)
 .data          0x00000000        0x0 c:/program files/microchip/xc32/v3.01/bin/bin/../../lib/gcc/pic32c/8.3.1/../../../../pic32c/lib/thumb/v6-m/nofp\libc_nano.a(lib_a-memcpy-stub.o)
 .bss           0x00000000        0x0 c:/program files/microchip/xc32/v3.01/bin/bin/../../lib/gcc/pic32c/8.3.1/../../../../pic32c/lib/thumb/v6-m/nofp\libc_nano.a(lib_a-memcpy-stub.o)
 .xc_stack_usage
                0x00000000       0x14 c:/program files/microchip/xc32/v3.01/bin/bin/../../lib/gcc/pic32c/8.3.1/../../../../pic32c/lib/thumb/v6-m/nofp\libc_nano.a(lib_a-memcpy-stub.o)
 .xc_stack_usage.hdr
                0x00000000        0xe c:/program files/microchip/xc32/v3.01/bin/bin/../../lib/gcc/pic32c/8.3.1/../../../../pic32c/lib/thumb/v6-m/nofp\libc_nano.a(lib_a-memcpy-stub.o)
 .text          0x00000000        0x0 c:/program files/microchip/xc32/v3.01/bin/bin/../../lib/gcc/pic32c/8.3.1/../../../../pic32c/lib/thumb/v6-m/nofp\libc_nano.a(lib_a-memset.o)
 .data          0x00000000        0x0 c:/program files/microchip/xc32/v3.01/bin/bin/../../lib/gcc/pic32c/8.3.1/../../../../pic32c/lib/thumb/v6-m/nofp\libc_nano.a(lib_a-memset.o)
 .bss           0x00000000        0x0 c:/program files/microchip/xc32/v3.01/bin/bin/../../lib/gcc/pic32c/8.3.1/../../../../pic32c/lib/thumb/v6-m/nofp\libc_nano.a(lib_a-memset.o)
 .xc_stack_usage
                0x00000000       0x14 c:/program files/microchip/xc32/v3.01/bin/bin/../../lib/gcc/pic32c/8.3.1/../../../../pic32c/lib/thumb/v6-m/nofp\libc_nano.a(lib_a-memset.o)
 .xc_stack_usage.hdr
                0x00000000        0xe c:/program files/microchip/xc32/v3.01/bin/bin/../../lib/gcc/pic32c/8.3.1/../../../../pic32c/lib/thumb/v6-m/nofp\libc_nano.a(lib_a-memset.o)
 .data          0x00000000        0x0 c:/program files/microchip/xc32/v3.01/bin/bin/../../lib/gcc/pic32c/8.3.1/../../../../pic32c/lib/thumb/v6-m/nofp\libc_nano.a(lib_a-strlen.o)
 .bss           0x00000000        0x0 c:/program files/microchip/xc32/v3.01/bin/bin/../../lib/gcc/pic32c/8.3.1/../../../../pic32c/lib/thumb/v6-m/nofp\libc_nano.a(lib_a-strlen.o)
 .xc_stack_usage.hdr
                0x00000000        0xe c:/program files/microchip/xc32/v3.01/bin/bin/../../lib/gcc/pic32c/8.3.1/../../../../pic32c/lib/thumb/v6-m/nofp\libc_nano.a(lib_a-strlen.o)
 .xc_stack_usage
                0x00000000       0x14 c:/program files/microchip/xc32/v3.01/bin/bin/../../lib/gcc/pic32c/8.3.1/../../../../pic32c/lib/thumb/v6-m/nofp\libc_nano.a(lib_a-strlen.o)
 .text          0x00000000        0x0 c:/program files/microchip/xc32/v3.01/bin/bin/../../lib/gcc/pic32c/8.3.1/../../../../pic32c/lib/thumb/v6-m/nofp\libc_nano.a(_lib_a-nano-vfprintf.cdnopuxX.o)
 .data          0x00000000        0x0 c:/program files/microchip/xc32/v3.01/bin/bin/../../lib/gcc/pic32c/8.3.1/../../../../pic32c/lib/thumb/v6-m/nofp\libc_nano.a(_lib_a-nano-vfprintf.cdnopuxX.o)
 .bss           0x00000000        0x0 c:/program files/microchip/xc32/v3.01/bin/bin/../../lib/gcc/pic32c/8.3.1/../../../../pic32c/lib/thumb/v6-m/nofp\libc_nano.a(_lib_a-nano-vfprintf.cdnopuxX.o)
 .xc_stack_usage
                0x00000000       0x5e c:/program files/microchip/xc32/v3.01/bin/bin/../../lib/gcc/pic32c/8.3.1/../../../../pic32c/lib/thumb/v6-m/nofp\libc_nano.a(_lib_a-nano-vfprintf.cdnopuxX.o)
 .text.__printf_float
                0x00000000        0x6 c:/program files/microchip/xc32/v3.01/bin/bin/../../lib/gcc/pic32c/8.3.1/../../../../pic32c/lib/thumb/v6-m/nofp\libc_nano.a(_lib_a-nano-vfprintf.cdnopuxX.o)
 .xc_stack_usage.hdr
                0x00000000        0xe c:/program files/microchip/xc32/v3.01/bin/bin/../../lib/gcc/pic32c/8.3.1/../../../../pic32c/lib/thumb/v6-m/nofp\libc_nano.a(_lib_a-nano-vfprintf.cdnopuxX.o)
 .text          0x00000000        0x0 c:/program files/microchip/xc32/v3.01/bin/bin/../../lib/gcc/pic32c/8.3.1/../../../../pic32c/lib/thumb/v6-m/nofp\libc_nano.a(lib_a-__ssfputs.o)
 .data          0x00000000        0x0 c:/program files/microchip/xc32/v3.01/bin/bin/../../lib/gcc/pic32c/8.3.1/../../../../pic32c/lib/thumb/v6-m/nofp\libc_nano.a(lib_a-__ssfputs.o)
 .bss           0x00000000        0x0 c:/program files/microchip/xc32/v3.01/bin/bin/../../lib/gcc/pic32c/8.3.1/../../../../pic32c/lib/thumb/v6-m/nofp\libc_nano.a(lib_a-__ssfputs.o)
 .xc_stack_usage
                0x00000000       0x31 c:/program files/microchip/xc32/v3.01/bin/bin/../../lib/gcc/pic32c/8.3.1/../../../../pic32c/lib/thumb/v6-m/nofp\libc_nano.a(lib_a-__ssfputs.o)
 .xc_stack_usage.hdr
                0x00000000        0xe c:/program files/microchip/xc32/v3.01/bin/bin/../../lib/gcc/pic32c/8.3.1/../../../../pic32c/lib/thumb/v6-m/nofp\libc_nano.a(lib_a-__ssfputs.o)
 .text          0x00000000        0x0 c:/program files/microchip/xc32/v3.01/bin/bin/../../lib/gcc/pic32c/8.3.1/../../../../pic32c/lib/thumb/v6-m/nofp\libc_nano.a(lib_a-findfp.o)
 .data          0x00000000        0x0 c:/program files/microchip/xc32/v3.01/bin/bin/../../lib/gcc/pic32c/8.3.1/../../../../pic32c/lib/thumb/v6-m/nofp\libc_nano.a(lib_a-findfp.o)
 .bss           0x00000000        0x0 c:/program files/microchip/xc32/v3.01/bin/bin/../../lib/gcc/pic32c/8.3.1/../../../../pic32c/lib/thumb/v6-m/nofp\libc_nano.a(lib_a-findfp.o)
 .xc_stack_usage
                0x00000000       0x81 c:/program files/microchip/xc32/v3.01/bin/bin/../../lib/gcc/pic32c/8.3.1/../../../../pic32c/lib/thumb/v6-m/nofp\libc_nano.a(lib_a-findfp.o)
 .text._cleanup
                0x00000000       0x10 c:/program files/microchip/xc32/v3.01/bin/bin/../../lib/gcc/pic32c/8.3.1/../../../../pic32c/lib/thumb/v6-m/nofp\libc_nano.a(lib_a-findfp.o)
 .xc_stack_usage.hdr
                0x00000000        0xe c:/program files/microchip/xc32/v3.01/bin/bin/../../lib/gcc/pic32c/8.3.1/../../../../pic32c/lib/thumb/v6-m/nofp\libc_nano.a(lib_a-findfp.o)
 .text          0x00000000        0x0 c:/program files/microchip/xc32/v3.01/bin/bin/../../lib/gcc/pic32c/8.3.1/../../../../pic32c/lib/thumb/v6-m/nofp\libc_nano.a(lib_a-fputwc.o)
 .data          0x00000000        0x0 c:/program files/microchip/xc32/v3.01/bin/bin/../../lib/gcc/pic32c/8.3.1/../../../../pic32c/lib/thumb/v6-m/nofp\libc_nano.a(lib_a-fputwc.o)
 .bss           0x00000000        0x0 c:/program files/microchip/xc32/v3.01/bin/bin/../../lib/gcc/pic32c/8.3.1/../../../../pic32c/lib/thumb/v6-m/nofp\libc_nano.a(lib_a-fputwc.o)
 .xc_stack_usage
                0x00000000       0x41 c:/program files/microchip/xc32/v3.01/bin/bin/../../lib/gcc/pic32c/8.3.1/../../../../pic32c/lib/thumb/v6-m/nofp\libc_nano.a(lib_a-fputwc.o)
 .text.fputwc   0x00000000       0x54 c:/program files/microchip/xc32/v3.01/bin/bin/../../lib/gcc/pic32c/8.3.1/../../../../pic32c/lib/thumb/v6-m/nofp\libc_nano.a(lib_a-fputwc.o)
 .xc_stack_usage.hdr
                0x00000000        0xe c:/program files/microchip/xc32/v3.01/bin/bin/../../lib/gcc/pic32c/8.3.1/../../../../pic32c/lib/thumb/v6-m/nofp\libc_nano.a(lib_a-fputwc.o)
 .text          0x00000000        0x0 c:/program files/microchip/xc32/v3.01/bin/bin/../../lib/gcc/pic32c/8.3.1/../../../../pic32c/lib/thumb/v6-m/nofp\libc_nano.a(lib_a-fwalk.o)
 .data          0x00000000        0x0 c:/program files/microchip/xc32/v3.01/bin/bin/../../lib/gcc/pic32c/8.3.1/../../../../pic32c/lib/thumb/v6-m/nofp\libc_nano.a(lib_a-fwalk.o)
 .bss           0x00000000        0x0 c:/program files/microchip/xc32/v3.01/bin/bin/../../lib/gcc/pic32c/8.3.1/../../../../pic32c/lib/thumb/v6-m/nofp\libc_nano.a(lib_a-fwalk.o)
 .xc_stack_usage
                0x00000000       0x2e c:/program files/microchip/xc32/v3.01/bin/bin/../../lib/gcc/pic32c/8.3.1/../../../../pic32c/lib/thumb/v6-m/nofp\libc_nano.a(lib_a-fwalk.o)
 .text._fwalk   0x00000000       0x38 c:/program files/microchip/xc32/v3.01/bin/bin/../../lib/gcc/pic32c/8.3.1/../../../../pic32c/lib/thumb/v6-m/nofp\libc_nano.a(lib_a-fwalk.o)
 .xc_stack_usage.hdr
                0x00000000        0xe c:/program files/microchip/xc32/v3.01/bin/bin/../../lib/gcc/pic32c/8.3.1/../../../../pic32c/lib/thumb/v6-m/nofp\libc_nano.a(lib_a-fwalk.o)
 .text          0x00000000        0x0 c:/program files/microchip/xc32/v3.01/bin/bin/../../lib/gcc/pic32c/8.3.1/../../../../pic32c/lib/thumb/v6-m/nofp\libc_nano.a(lib_a-impure.o)
 .data          0x00000000        0x0 c:/program files/microchip/xc32/v3.01/bin/bin/../../lib/gcc/pic32c/8.3.1/../../../../pic32c/lib/thumb/v6-m/nofp\libc_nano.a(lib_a-impure.o)
 .bss           0x00000000        0x0 c:/program files/microchip/xc32/v3.01/bin/bin/../../lib/gcc/pic32c/8.3.1/../../../../pic32c/lib/thumb/v6-m/nofp\libc_nano.a(lib_a-impure.o)
 .xc_stack_usage.hdr
                0x00000000        0xe c:/program files/microchip/xc32/v3.01/bin/bin/../../lib/gcc/pic32c/8.3.1/../../../../pic32c/lib/thumb/v6-m/nofp\libc_nano.a(lib_a-impure.o)
 .text          0x00000000        0x0 c:/program files/microchip/xc32/v3.01/bin/bin/../../lib/gcc/pic32c/8.3.1/../../../../pic32c/lib/thumb/v6-m/nofp\libc_nano.a(lib_a-locale.o)
 .data          0x00000000        0x0 c:/program files/microchip/xc32/v3.01/bin/bin/../../lib/gcc/pic32c/8.3.1/../../../../pic32c/lib/thumb/v6-m/nofp\libc_nano.a(lib_a-locale.o)
 .bss           0x00000000        0x0 c:/program files/microchip/xc32/v3.01/bin/bin/../../lib/gcc/pic32c/8.3.1/../../../../pic32c/lib/thumb/v6-m/nofp\libc_nano.a(lib_a-locale.o)
 .xc_stack_usage
                0x00000000       0x52 c:/program files/microchip/xc32/v3.01/bin/bin/../../lib/gcc/pic32c/8.3.1/../../../../pic32c/lib/thumb/v6-m/nofp\libc_nano.a(lib_a-locale.o)
 .text._setlocale_r
                0x00000000       0x3c c:/program files/microchip/xc32/v3.01/bin/bin/../../lib/gcc/pic32c/8.3.1/../../../../pic32c/lib/thumb/v6-m/nofp\libc_nano.a(lib_a-locale.o)
 .text.setlocale
                0x00000000       0x14 c:/program files/microchip/xc32/v3.01/bin/bin/../../lib/gcc/pic32c/8.3.1/../../../../pic32c/lib/thumb/v6-m/nofp\libc_nano.a(lib_a-locale.o)
 .bss._PathLocale
                0x00000000        0x4 c:/program files/microchip/xc32/v3.01/bin/bin/../../lib/gcc/pic32c/8.3.1/../../../../pic32c/lib/thumb/v6-m/nofp\libc_nano.a(lib_a-locale.o)
 .xc_stack_usage.hdr
                0x00000000        0xe c:/program files/microchip/xc32/v3.01/bin/bin/../../lib/gcc/pic32c/8.3.1/../../../../pic32c/lib/thumb/v6-m/nofp\libc_nano.a(lib_a-locale.o)
 .text          0x00000000        0x0 c:/program files/microchip/xc32/v3.01/bin/bin/../../lib/gcc/pic32c/8.3.1/../../../../pic32c/lib/thumb/v6-m/nofp\libc_nano.a(lib_a-mbtowc_r.o)
 .data          0x00000000        0x0 c:/program files/microchip/xc32/v3.01/bin/bin/../../lib/gcc/pic32c/8.3.1/../../../../pic32c/lib/thumb/v6-m/nofp\libc_nano.a(lib_a-mbtowc_r.o)
 .bss           0x00000000        0x0 c:/program files/microchip/xc32/v3.01/bin/bin/../../lib/gcc/pic32c/8.3.1/../../../../pic32c/lib/thumb/v6-m/nofp\libc_nano.a(lib_a-mbtowc_r.o)
 .xc_stack_usage
                0x00000000       0x33 c:/program files/microchip/xc32/v3.01/bin/bin/../../lib/gcc/pic32c/8.3.1/../../../../pic32c/lib/thumb/v6-m/nofp\libc_nano.a(lib_a-mbtowc_r.o)
 .text._mbtowc_r
                0x00000000       0x14 c:/program files/microchip/xc32/v3.01/bin/bin/../../lib/gcc/pic32c/8.3.1/../../../../pic32c/lib/thumb/v6-m/nofp\libc_nano.a(lib_a-mbtowc_r.o)
 .xc_stack_usage.hdr
                0x00000000        0xe c:/program files/microchip/xc32/v3.01/bin/bin/../../lib/gcc/pic32c/8.3.1/../../../../pic32c/lib/thumb/v6-m/nofp\libc_nano.a(lib_a-mbtowc_r.o)
 .text          0x00000000        0x0 c:/program files/microchip/xc32/v3.01/bin/bin/../../lib/gcc/pic32c/8.3.1/../../../../pic32c/lib/thumb/v6-m/nofp\libc_nano.a(lib_a-memchr-stub.o)
 .data          0x00000000        0x0 c:/program files/microchip/xc32/v3.01/bin/bin/../../lib/gcc/pic32c/8.3.1/../../../../pic32c/lib/thumb/v6-m/nofp\libc_nano.a(lib_a-memchr-stub.o)
 .bss           0x00000000        0x0 c:/program files/microchip/xc32/v3.01/bin/bin/../../lib/gcc/pic32c/8.3.1/../../../../pic32c/lib/thumb/v6-m/nofp\libc_nano.a(lib_a-memchr-stub.o)
 .xc_stack_usage
                0x00000000       0x14 c:/program files/microchip/xc32/v3.01/bin/bin/../../lib/gcc/pic32c/8.3.1/../../../../pic32c/lib/thumb/v6-m/nofp\libc_nano.a(lib_a-memchr-stub.o)
 .xc_stack_usage.hdr
                0x00000000        0xe c:/program files/microchip/xc32/v3.01/bin/bin/../../lib/gcc/pic32c/8.3.1/../../../../pic32c/lib/thumb/v6-m/nofp\libc_nano.a(lib_a-memchr-stub.o)
 .text          0x00000000        0x0 c:/program files/microchip/xc32/v3.01/bin/bin/../../lib/gcc/pic32c/8.3.1/../../../../pic32c/lib/thumb/v6-m/nofp\libc_nano.a(lib_a-nano-mallocr.o)
 .data          0x00000000        0x0 c:/program files/microchip/xc32/v3.01/bin/bin/../../lib/gcc/pic32c/8.3.1/../../../../pic32c/lib/thumb/v6-m/nofp\libc_nano.a(lib_a-nano-mallocr.o)
 .bss           0x00000000        0x0 c:/program files/microchip/xc32/v3.01/bin/bin/../../lib/gcc/pic32c/8.3.1/../../../../pic32c/lib/thumb/v6-m/nofp\libc_nano.a(lib_a-nano-mallocr.o)
 .xc_stack_usage
                0x00000000       0x17 c:/program files/microchip/xc32/v3.01/bin/bin/../../lib/gcc/pic32c/8.3.1/../../../../pic32c/lib/thumb/v6-m/nofp\libc_nano.a(lib_a-nano-mallocr.o)
 .xc_stack_usage.hdr
                0x00000000        0xe c:/program files/microchip/xc32/v3.01/bin/bin/../../lib/gcc/pic32c/8.3.1/../../../../pic32c/lib/thumb/v6-m/nofp\libc_nano.a(lib_a-nano-mallocr.o)
 .text          0x00000000        0x0 c:/program files/microchip/xc32/v3.01/bin/bin/../../lib/gcc/pic32c/8.3.1/../../../../pic32c/lib/thumb/v6-m/nofp\libc_nano.a(lib_a-nano-vfprintf_i.o)
 .data          0x00000000        0x0 c:/program files/microchip/xc32/v3.01/bin/bin/../../lib/gcc/pic32c/8.3.1/../../../../pic32c/lib/thumb/v6-m/nofp\libc_nano.a(lib_a-nano-vfprintf_i.o)
 .bss           0x00000000        0x0 c:/program files/microchip/xc32/v3.01/bin/bin/../../lib/gcc/pic32c/8.3.1/../../../../pic32c/lib/thumb/v6-m/nofp\libc_nano.a(lib_a-nano-vfprintf_i.o)
 .xc_stack_usage
                0x00000000       0x33 c:/program files/microchip/xc32/v3.01/bin/bin/../../lib/gcc/pic32c/8.3.1/../../../../pic32c/lib/thumb/v6-m/nofp\libc_nano.a(lib_a-nano-vfprintf_i.o)
 .text._printf_i
                0x00000000      0x210 c:/program files/microchip/xc32/v3.01/bin/bin/../../lib/gcc/pic32c/8.3.1/../../../../pic32c/lib/thumb/v6-m/nofp\libc_nano.a(lib_a-nano-vfprintf_i.o)
 .rodata        0x00000000       0x22 c:/program files/microchip/xc32/v3.01/bin/bin/../../lib/gcc/pic32c/8.3.1/../../../../pic32c/lib/thumb/v6-m/nofp\libc_nano.a(lib_a-nano-vfprintf_i.o)
 .xc_stack_usage.hdr
                0x00000000        0xe c:/program files/microchip/xc32/v3.01/bin/bin/../../lib/gcc/pic32c/8.3.1/../../../../pic32c/lib/thumb/v6-m/nofp\libc_nano.a(lib_a-nano-vfprintf_i.o)
 .text          0x00000000        0x0 c:/program files/microchip/xc32/v3.01/bin/bin/../../lib/gcc/pic32c/8.3.1/../../../../pic32c/lib/thumb/v6-m/nofp\libc_nano.a(lib_a-sbrkr.o)
 .data          0x00000000        0x0 c:/program files/microchip/xc32/v3.01/bin/bin/../../lib/gcc/pic32c/8.3.1/../../../../pic32c/lib/thumb/v6-m/nofp\libc_nano.a(lib_a-sbrkr.o)
 .bss           0x00000000        0x0 c:/program files/microchip/xc32/v3.01/bin/bin/../../lib/gcc/pic32c/8.3.1/../../../../pic32c/lib/thumb/v6-m/nofp\libc_nano.a(lib_a-sbrkr.o)
 .xc_stack_usage
                0x00000000       0x15 c:/program files/microchip/xc32/v3.01/bin/bin/../../lib/gcc/pic32c/8.3.1/../../../../pic32c/lib/thumb/v6-m/nofp\libc_nano.a(lib_a-sbrkr.o)
 .xc_stack_usage.hdr
                0x00000000        0xe c:/program files/microchip/xc32/v3.01/bin/bin/../../lib/gcc/pic32c/8.3.1/../../../../pic32c/lib/thumb/v6-m/nofp\libc_nano.a(lib_a-sbrkr.o)
 .text          0x00000000        0x0 c:/program files/microchip/xc32/v3.01/bin/bin/../../lib/gcc/pic32c/8.3.1/../../../../pic32c/lib/thumb/v6-m/nofp\libc_nano.a(lib_a-stdio.o)
 .data          0x00000000        0x0 c:/program files/microchip/xc32/v3.01/bin/bin/../../lib/gcc/pic32c/8.3.1/../../../../pic32c/lib/thumb/v6-m/nofp\libc_nano.a(lib_a-stdio.o)
 .bss           0x00000000        0x0 c:/program files/microchip/xc32/v3.01/bin/bin/../../lib/gcc/pic32c/8.3.1/../../../../pic32c/lib/thumb/v6-m/nofp\libc_nano.a(lib_a-stdio.o)
 .xc_stack_usage
                0x00000000       0x6e c:/program files/microchip/xc32/v3.01/bin/bin/../../lib/gcc/pic32c/8.3.1/../../../../pic32c/lib/thumb/v6-m/nofp\libc_nano.a(lib_a-stdio.o)
 .text.__seofread
                0x00000000        0x4 c:/program files/microchip/xc32/v3.01/bin/bin/../../lib/gcc/pic32c/8.3.1/../../../../pic32c/lib/thumb/v6-m/nofp\libc_nano.a(lib_a-stdio.o)
 .xc_stack_usage.hdr
                0x00000000        0xe c:/program files/microchip/xc32/v3.01/bin/bin/../../lib/gcc/pic32c/8.3.1/../../../../pic32c/lib/thumb/v6-m/nofp\libc_nano.a(lib_a-stdio.o)
 .text          0x00000000       0x14 c:/program files/microchip/xc32/v3.01/bin/bin/../../lib/gcc/pic32c/8.3.1/../../../../pic32c/lib/thumb/v6-m/nofp\libc_nano.a(lib_a-strcmp.o)
 .data          0x00000000        0x0 c:/program files/microchip/xc32/v3.01/bin/bin/../../lib/gcc/pic32c/8.3.1/../../../../pic32c/lib/thumb/v6-m/nofp\libc_nano.a(lib_a-strcmp.o)
 .bss           0x00000000        0x0 c:/program files/microchip/xc32/v3.01/bin/bin/../../lib/gcc/pic32c/8.3.1/../../../../pic32c/lib/thumb/v6-m/nofp\libc_nano.a(lib_a-strcmp.o)
 .xc_stack_usage.hdr
                0x00000000        0xe c:/program files/microchip/xc32/v3.01/bin/bin/../../lib/gcc/pic32c/8.3.1/../../../../pic32c/lib/thumb/v6-m/nofp\libc_nano.a(lib_a-strcmp.o)
 .xc_stack_usage
                0x00000000       0x14 c:/program files/microchip/xc32/v3.01/bin/bin/../../lib/gcc/pic32c/8.3.1/../../../../pic32c/lib/thumb/v6-m/nofp\libc_nano.a(lib_a-strcmp.o)
 .debug_frame   0x00000000       0x20 c:/program files/microchip/xc32/v3.01/bin/bin/../../lib/gcc/pic32c/8.3.1/../../../../pic32c/lib/thumb/v6-m/nofp\libc_nano.a(lib_a-strcmp.o)
 .ARM.attributes
                0x00000000       0x1c c:/program files/microchip/xc32/v3.01/bin/bin/../../lib/gcc/pic32c/8.3.1/../../../../pic32c/lib/thumb/v6-m/nofp\libc_nano.a(lib_a-strcmp.o)
 .text          0x00000000        0x0 c:/program files/microchip/xc32/v3.01/bin/bin/../../lib/gcc/pic32c/8.3.1/../../../../pic32c/lib/thumb/v6-m/nofp\libc_nano.a(lib_a-wbuf.o)
 .data          0x00000000        0x0 c:/program files/microchip/xc32/v3.01/bin/bin/../../lib/gcc/pic32c/8.3.1/../../../../pic32c/lib/thumb/v6-m/nofp\libc_nano.a(lib_a-wbuf.o)
 .bss           0x00000000        0x0 c:/program files/microchip/xc32/v3.01/bin/bin/../../lib/gcc/pic32c/8.3.1/../../../../pic32c/lib/thumb/v6-m/nofp\libc_nano.a(lib_a-wbuf.o)
 .xc_stack_usage
                0x00000000       0x2c c:/program files/microchip/xc32/v3.01/bin/bin/../../lib/gcc/pic32c/8.3.1/../../../../pic32c/lib/thumb/v6-m/nofp\libc_nano.a(lib_a-wbuf.o)
 .text.__swbuf  0x00000000       0x14 c:/program files/microchip/xc32/v3.01/bin/bin/../../lib/gcc/pic32c/8.3.1/../../../../pic32c/lib/thumb/v6-m/nofp\libc_nano.a(lib_a-wbuf.o)
 .xc_stack_usage.hdr
                0x00000000        0xe c:/program files/microchip/xc32/v3.01/bin/bin/../../lib/gcc/pic32c/8.3.1/../../../../pic32c/lib/thumb/v6-m/nofp\libc_nano.a(lib_a-wbuf.o)
 .text          0x00000000        0x0 c:/program files/microchip/xc32/v3.01/bin/bin/../../lib/gcc/pic32c/8.3.1/../../../../pic32c/lib/thumb/v6-m/nofp\libc_nano.a(lib_a-wcrtomb.o)
 .data          0x00000000        0x0 c:/program files/microchip/xc32/v3.01/bin/bin/../../lib/gcc/pic32c/8.3.1/../../../../pic32c/lib/thumb/v6-m/nofp\libc_nano.a(lib_a-wcrtomb.o)
 .bss           0x00000000        0x0 c:/program files/microchip/xc32/v3.01/bin/bin/../../lib/gcc/pic32c/8.3.1/../../../../pic32c/lib/thumb/v6-m/nofp\libc_nano.a(lib_a-wcrtomb.o)
 .xc_stack_usage
                0x00000000       0x2d c:/program files/microchip/xc32/v3.01/bin/bin/../../lib/gcc/pic32c/8.3.1/../../../../pic32c/lib/thumb/v6-m/nofp\libc_nano.a(lib_a-wcrtomb.o)
 .text.wcrtomb  0x00000000       0x18 c:/program files/microchip/xc32/v3.01/bin/bin/../../lib/gcc/pic32c/8.3.1/../../../../pic32c/lib/thumb/v6-m/nofp\libc_nano.a(lib_a-wcrtomb.o)
 .xc_stack_usage.hdr
                0x00000000        0xe c:/program files/microchip/xc32/v3.01/bin/bin/../../lib/gcc/pic32c/8.3.1/../../../../pic32c/lib/thumb/v6-m/nofp\libc_nano.a(lib_a-wcrtomb.o)
 .text          0x00000000        0x0 c:/program files/microchip/xc32/v3.01/bin/bin/../../lib/gcc/pic32c/8.3.1/../../../../pic32c/lib/thumb/v6-m/nofp\libc_nano.a(lib_a-wctomb_r.o)
 .data          0x00000000        0x0 c:/program files/microchip/xc32/v3.01/bin/bin/../../lib/gcc/pic32c/8.3.1/../../../../pic32c/lib/thumb/v6-m/nofp\libc_nano.a(lib_a-wctomb_r.o)
 .bss           0x00000000        0x0 c:/program files/microchip/xc32/v3.01/bin/bin/../../lib/gcc/pic32c/8.3.1/../../../../pic32c/lib/thumb/v6-m/nofp\libc_nano.a(lib_a-wctomb_r.o)
 .xc_stack_usage
                0x00000000       0x33 c:/program files/microchip/xc32/v3.01/bin/bin/../../lib/gcc/pic32c/8.3.1/../../../../pic32c/lib/thumb/v6-m/nofp\libc_nano.a(lib_a-wctomb_r.o)
 .text._wctomb_r
                0x00000000       0x10 c:/program files/microchip/xc32/v3.01/bin/bin/../../lib/gcc/pic32c/8.3.1/../../../../pic32c/lib/thumb/v6-m/nofp\libc_nano.a(lib_a-wctomb_r.o)
 .xc_stack_usage.hdr
                0x00000000        0xe c:/program files/microchip/xc32/v3.01/bin/bin/../../lib/gcc/pic32c/8.3.1/../../../../pic32c/lib/thumb/v6-m/nofp\libc_nano.a(lib_a-wctomb_r.o)
 .text          0x00000000        0x0 c:/program files/microchip/xc32/v3.01/bin/bin/../../lib/gcc/pic32c/8.3.1/../../../../pic32c/lib/thumb/v6-m/nofp\libc_nano.a(lib_a-writer.o)
 .data          0x00000000        0x0 c:/program files/microchip/xc32/v3.01/bin/bin/../../lib/gcc/pic32c/8.3.1/../../../../pic32c/lib/thumb/v6-m/nofp\libc_nano.a(lib_a-writer.o)
 .bss           0x00000000        0x0 c:/program files/microchip/xc32/v3.01/bin/bin/../../lib/gcc/pic32c/8.3.1/../../../../pic32c/lib/thumb/v6-m/nofp\libc_nano.a(lib_a-writer.o)
 .xc_stack_usage
                0x00000000       0x16 c:/program files/microchip/xc32/v3.01/bin/bin/../../lib/gcc/pic32c/8.3.1/../../../../pic32c/lib/thumb/v6-m/nofp\libc_nano.a(lib_a-writer.o)
 .xc_stack_usage.hdr
                0x00000000        0xe c:/program files/microchip/xc32/v3.01/bin/bin/../../lib/gcc/pic32c/8.3.1/../../../../pic32c/lib/thumb/v6-m/nofp\libc_nano.a(lib_a-writer.o)
 .text          0x00000000        0x0 c:/program files/microchip/xc32/v3.01/bin/bin/../../lib/gcc/pic32c/8.3.1/../../../../pic32c/lib/thumb/v6-m/nofp\libc_nano.a(lib_a-wsetup.o)
 .data          0x00000000        0x0 c:/program files/microchip/xc32/v3.01/bin/bin/../../lib/gcc/pic32c/8.3.1/../../../../pic32c/lib/thumb/v6-m/nofp\libc_nano.a(lib_a-wsetup.o)
 .bss           0x00000000        0x0 c:/program files/microchip/xc32/v3.01/bin/bin/../../lib/gcc/pic32c/8.3.1/../../../../pic32c/lib/thumb/v6-m/nofp\libc_nano.a(lib_a-wsetup.o)
 .xc_stack_usage
                0x00000000       0x19 c:/program files/microchip/xc32/v3.01/bin/bin/../../lib/gcc/pic32c/8.3.1/../../../../pic32c/lib/thumb/v6-m/nofp\libc_nano.a(lib_a-wsetup.o)
 .xc_stack_usage.hdr
                0x00000000        0xe c:/program files/microchip/xc32/v3.01/bin/bin/../../lib/gcc/pic32c/8.3.1/../../../../pic32c/lib/thumb/v6-m/nofp\libc_nano.a(lib_a-wsetup.o)
 .text          0x00000000        0x0 c:/program files/microchip/xc32/v3.01/bin/bin/../../lib/gcc/pic32c/8.3.1/../../../../pic32c/lib/thumb/v6-m/nofp\libc_nano.a(lib_a-closer.o)
 .data          0x00000000        0x0 c:/program files/microchip/xc32/v3.01/bin/bin/../../lib/gcc/pic32c/8.3.1/../../../../pic32c/lib/thumb/v6-m/nofp\libc_nano.a(lib_a-closer.o)
 .bss           0x00000000        0x0 c:/program files/microchip/xc32/v3.01/bin/bin/../../lib/gcc/pic32c/8.3.1/../../../../pic32c/lib/thumb/v6-m/nofp\libc_nano.a(lib_a-closer.o)
 .xc_stack_usage
                0x00000000       0x16 c:/program files/microchip/xc32/v3.01/bin/bin/../../lib/gcc/pic32c/8.3.1/../../../../pic32c/lib/thumb/v6-m/nofp\libc_nano.a(lib_a-closer.o)
 .xc_stack_usage.hdr
                0x00000000        0xe c:/program files/microchip/xc32/v3.01/bin/bin/../../lib/gcc/pic32c/8.3.1/../../../../pic32c/lib/thumb/v6-m/nofp\libc_nano.a(lib_a-closer.o)
 .text          0x00000000        0x0 c:/program files/microchip/xc32/v3.01/bin/bin/../../lib/gcc/pic32c/8.3.1/../../../../pic32c/lib/thumb/v6-m/nofp\libc_nano.a(lib_a-ctype_.o)
 .data          0x00000000        0x0 c:/program files/microchip/xc32/v3.01/bin/bin/../../lib/gcc/pic32c/8.3.1/../../../../pic32c/lib/thumb/v6-m/nofp\libc_nano.a(lib_a-ctype_.o)
 .bss           0x00000000        0x0 c:/program files/microchip/xc32/v3.01/bin/bin/../../lib/gcc/pic32c/8.3.1/../../../../pic32c/lib/thumb/v6-m/nofp\libc_nano.a(lib_a-ctype_.o)
 .xc_stack_usage.hdr
                0x00000000        0xe c:/program files/microchip/xc32/v3.01/bin/bin/../../lib/gcc/pic32c/8.3.1/../../../../pic32c/lib/thumb/v6-m/nofp\libc_nano.a(lib_a-ctype_.o)
 .text          0x00000000        0x0 c:/program files/microchip/xc32/v3.01/bin/bin/../../lib/gcc/pic32c/8.3.1/../../../../pic32c/lib/thumb/v6-m/nofp\libc_nano.a(lib_a-fflush.o)
 .data          0x00000000        0x0 c:/program files/microchip/xc32/v3.01/bin/bin/../../lib/gcc/pic32c/8.3.1/../../../../pic32c/lib/thumb/v6-m/nofp\libc_nano.a(lib_a-fflush.o)
 .bss           0x00000000        0x0 c:/program files/microchip/xc32/v3.01/bin/bin/../../lib/gcc/pic32c/8.3.1/../../../../pic32c/lib/thumb/v6-m/nofp\libc_nano.a(lib_a-fflush.o)
 .xc_stack_usage
                0x00000000       0x43 c:/program files/microchip/xc32/v3.01/bin/bin/../../lib/gcc/pic32c/8.3.1/../../../../pic32c/lib/thumb/v6-m/nofp\libc_nano.a(lib_a-fflush.o)
 .text.fflush   0x00000000       0x28 c:/program files/microchip/xc32/v3.01/bin/bin/../../lib/gcc/pic32c/8.3.1/../../../../pic32c/lib/thumb/v6-m/nofp\libc_nano.a(lib_a-fflush.o)
 .xc_stack_usage.hdr
                0x00000000        0xe c:/program files/microchip/xc32/v3.01/bin/bin/../../lib/gcc/pic32c/8.3.1/../../../../pic32c/lib/thumb/v6-m/nofp\libc_nano.a(lib_a-fflush.o)
 .text          0x00000000        0x0 c:/program files/microchip/xc32/v3.01/bin/bin/../../lib/gcc/pic32c/8.3.1/../../../../pic32c/lib/thumb/v6-m/nofp\libc_nano.a(lib_a-lseekr.o)
 .data          0x00000000        0x0 c:/program files/microchip/xc32/v3.01/bin/bin/../../lib/gcc/pic32c/8.3.1/../../../../pic32c/lib/thumb/v6-m/nofp\libc_nano.a(lib_a-lseekr.o)
 .bss           0x00000000        0x0 c:/program files/microchip/xc32/v3.01/bin/bin/../../lib/gcc/pic32c/8.3.1/../../../../pic32c/lib/thumb/v6-m/nofp\libc_nano.a(lib_a-lseekr.o)
 .xc_stack_usage
                0x00000000       0x16 c:/program files/microchip/xc32/v3.01/bin/bin/../../lib/gcc/pic32c/8.3.1/../../../../pic32c/lib/thumb/v6-m/nofp\libc_nano.a(lib_a-lseekr.o)
 .xc_stack_usage.hdr
                0x00000000        0xe c:/program files/microchip/xc32/v3.01/bin/bin/../../lib/gcc/pic32c/8.3.1/../../../../pic32c/lib/thumb/v6-m/nofp\libc_nano.a(lib_a-lseekr.o)
 .text          0x00000000        0x0 c:/program files/microchip/xc32/v3.01/bin/bin/../../lib/gcc/pic32c/8.3.1/../../../../pic32c/lib/thumb/v6-m/nofp\libc_nano.a(lib_a-makebuf.o)
 .data          0x00000000        0x0 c:/program files/microchip/xc32/v3.01/bin/bin/../../lib/gcc/pic32c/8.3.1/../../../../pic32c/lib/thumb/v6-m/nofp\libc_nano.a(lib_a-makebuf.o)
 .bss           0x00000000        0x0 c:/program files/microchip/xc32/v3.01/bin/bin/../../lib/gcc/pic32c/8.3.1/../../../../pic32c/lib/thumb/v6-m/nofp\libc_nano.a(lib_a-makebuf.o)
 .xc_stack_usage
                0x00000000       0x34 c:/program files/microchip/xc32/v3.01/bin/bin/../../lib/gcc/pic32c/8.3.1/../../../../pic32c/lib/thumb/v6-m/nofp\libc_nano.a(lib_a-makebuf.o)
 .xc_stack_usage.hdr
                0x00000000        0xe c:/program files/microchip/xc32/v3.01/bin/bin/../../lib/gcc/pic32c/8.3.1/../../../../pic32c/lib/thumb/v6-m/nofp\libc_nano.a(lib_a-makebuf.o)
 .text          0x00000000        0x0 c:/program files/microchip/xc32/v3.01/bin/bin/../../lib/gcc/pic32c/8.3.1/../../../../pic32c/lib/thumb/v6-m/nofp\libc_nano.a(lib_a-mlock.o)
 .data          0x00000000        0x0 c:/program files/microchip/xc32/v3.01/bin/bin/../../lib/gcc/pic32c/8.3.1/../../../../pic32c/lib/thumb/v6-m/nofp\libc_nano.a(lib_a-mlock.o)
 .bss           0x00000000        0x0 c:/program files/microchip/xc32/v3.01/bin/bin/../../lib/gcc/pic32c/8.3.1/../../../../pic32c/lib/thumb/v6-m/nofp\libc_nano.a(lib_a-mlock.o)
 .xc_stack_usage
                0x00000000       0x38 c:/program files/microchip/xc32/v3.01/bin/bin/../../lib/gcc/pic32c/8.3.1/../../../../pic32c/lib/thumb/v6-m/nofp\libc_nano.a(lib_a-mlock.o)
 .xc_stack_usage.hdr
                0x00000000        0xe c:/program files/microchip/xc32/v3.01/bin/bin/../../lib/gcc/pic32c/8.3.1/../../../../pic32c/lib/thumb/v6-m/nofp\libc_nano.a(lib_a-mlock.o)
 .text          0x00000000        0x0 c:/program files/microchip/xc32/v3.01/bin/bin/../../lib/gcc/pic32c/8.3.1/../../../../pic32c/lib/thumb/v6-m/nofp\libc_nano.a(lib_a-nano-freer.o)
 .data          0x00000000        0x0 c:/program files/microchip/xc32/v3.01/bin/bin/../../lib/gcc/pic32c/8.3.1/../../../../pic32c/lib/thumb/v6-m/nofp\libc_nano.a(lib_a-nano-freer.o)
 .bss           0x00000000        0x0 c:/program files/microchip/xc32/v3.01/bin/bin/../../lib/gcc/pic32c/8.3.1/../../../../pic32c/lib/thumb/v6-m/nofp\libc_nano.a(lib_a-nano-freer.o)
 .xc_stack_usage
                0x00000000       0x15 c:/program files/microchip/xc32/v3.01/bin/bin/../../lib/gcc/pic32c/8.3.1/../../../../pic32c/lib/thumb/v6-m/nofp\libc_nano.a(lib_a-nano-freer.o)
 .xc_stack_usage.hdr
                0x00000000        0xe c:/program files/microchip/xc32/v3.01/bin/bin/../../lib/gcc/pic32c/8.3.1/../../../../pic32c/lib/thumb/v6-m/nofp\libc_nano.a(lib_a-nano-freer.o)
 .text          0x00000000        0x0 c:/program files/microchip/xc32/v3.01/bin/bin/../../lib/gcc/pic32c/8.3.1/../../../../pic32c/lib/thumb/v6-m/nofp\libc_nano.a(lib_a-readr.o)
 .data          0x00000000        0x0 c:/program files/microchip/xc32/v3.01/bin/bin/../../lib/gcc/pic32c/8.3.1/../../../../pic32c/lib/thumb/v6-m/nofp\libc_nano.a(lib_a-readr.o)
 .bss           0x00000000        0x0 c:/program files/microchip/xc32/v3.01/bin/bin/../../lib/gcc/pic32c/8.3.1/../../../../pic32c/lib/thumb/v6-m/nofp\libc_nano.a(lib_a-readr.o)
 .xc_stack_usage
                0x00000000       0x15 c:/program files/microchip/xc32/v3.01/bin/bin/../../lib/gcc/pic32c/8.3.1/../../../../pic32c/lib/thumb/v6-m/nofp\libc_nano.a(lib_a-readr.o)
 .xc_stack_usage.hdr
                0x00000000        0xe c:/program files/microchip/xc32/v3.01/bin/bin/../../lib/gcc/pic32c/8.3.1/../../../../pic32c/lib/thumb/v6-m/nofp\libc_nano.a(lib_a-readr.o)
 .text          0x00000000        0x0 c:/program files/microchip/xc32/v3.01/bin/bin/../../lib/gcc/pic32c/8.3.1/../../../../pic32c/lib/thumb/v6-m/nofp\libc_nano.a(lib_a-reent.o)
 .data          0x00000000        0x0 c:/program files/microchip/xc32/v3.01/bin/bin/../../lib/gcc/pic32c/8.3.1/../../../../pic32c/lib/thumb/v6-m/nofp\libc_nano.a(lib_a-reent.o)
 .bss           0x00000000        0x0 c:/program files/microchip/xc32/v3.01/bin/bin/../../lib/gcc/pic32c/8.3.1/../../../../pic32c/lib/thumb/v6-m/nofp\libc_nano.a(lib_a-reent.o)
 .xc_stack_usage
                0x00000000       0x36 c:/program files/microchip/xc32/v3.01/bin/bin/../../lib/gcc/pic32c/8.3.1/../../../../pic32c/lib/thumb/v6-m/nofp\libc_nano.a(lib_a-reent.o)
 .text.cleanup_glue
                0x00000000       0x1a c:/program files/microchip/xc32/v3.01/bin/bin/../../lib/gcc/pic32c/8.3.1/../../../../pic32c/lib/thumb/v6-m/nofp\libc_nano.a(lib_a-reent.o)
 .text._reclaim_reent
                0x00000000       0xcc c:/program files/microchip/xc32/v3.01/bin/bin/../../lib/gcc/pic32c/8.3.1/../../../../pic32c/lib/thumb/v6-m/nofp\libc_nano.a(lib_a-reent.o)
 .xc_stack_usage.hdr
                0x00000000        0xe c:/program files/microchip/xc32/v3.01/bin/bin/../../lib/gcc/pic32c/8.3.1/../../../../pic32c/lib/thumb/v6-m/nofp\libc_nano.a(lib_a-reent.o)
 .text          0x00000000        0x0 c:/program files/microchip/xc32/v3.01/bin/bin/../../lib/gcc/pic32c/8.3.1/../../../../pic32c/lib/thumb/v6-m/nofp\libc_nano.a(lib_a-fstatr.o)
 .data          0x00000000        0x0 c:/program files/microchip/xc32/v3.01/bin/bin/../../lib/gcc/pic32c/8.3.1/../../../../pic32c/lib/thumb/v6-m/nofp\libc_nano.a(lib_a-fstatr.o)
 .bss           0x00000000        0x0 c:/program files/microchip/xc32/v3.01/bin/bin/../../lib/gcc/pic32c/8.3.1/../../../../pic32c/lib/thumb/v6-m/nofp\libc_nano.a(lib_a-fstatr.o)
 .xc_stack_usage
                0x00000000       0x16 c:/program files/microchip/xc32/v3.01/bin/bin/../../lib/gcc/pic32c/8.3.1/../../../../pic32c/lib/thumb/v6-m/nofp\libc_nano.a(lib_a-fstatr.o)
 .xc_stack_usage.hdr
                0x00000000        0xe c:/program files/microchip/xc32/v3.01/bin/bin/../../lib/gcc/pic32c/8.3.1/../../../../pic32c/lib/thumb/v6-m/nofp\libc_nano.a(lib_a-fstatr.o)
 .text          0x00000000        0x0 c:/program files/microchip/xc32/v3.01/bin/bin/../../lib/gcc/pic32c/8.3.1/../../../../pic32c/lib/thumb/v6-m/nofp\libc_nano.a(lib_a-isattyr.o)
 .data          0x00000000        0x0 c:/program files/microchip/xc32/v3.01/bin/bin/../../lib/gcc/pic32c/8.3.1/../../../../pic32c/lib/thumb/v6-m/nofp\libc_nano.a(lib_a-isattyr.o)
 .bss           0x00000000        0x0 c:/program files/microchip/xc32/v3.01/bin/bin/../../lib/gcc/pic32c/8.3.1/../../../../pic32c/lib/thumb/v6-m/nofp\libc_nano.a(lib_a-isattyr.o)
 .xc_stack_usage
                0x00000000       0x17 c:/program files/microchip/xc32/v3.01/bin/bin/../../lib/gcc/pic32c/8.3.1/../../../../pic32c/lib/thumb/v6-m/nofp\libc_nano.a(lib_a-isattyr.o)
 .xc_stack_usage.hdr
                0x00000000        0xe c:/program files/microchip/xc32/v3.01/bin/bin/../../lib/gcc/pic32c/8.3.1/../../../../pic32c/lib/thumb/v6-m/nofp\libc_nano.a(lib_a-isattyr.o)
 .text          0x00000000        0x0 c:/program files/microchip/xc32/v3.01/bin/bin/../../lib/gcc/pic32c/8.3.1/../../../../pic32c/lib/thumb/v6-m/nofp\libpic32c.a(_close.o)
 .data          0x00000000        0x0 c:/program files/microchip/xc32/v3.01/bin/bin/../../lib/gcc/pic32c/8.3.1/../../../../pic32c/lib/thumb/v6-m/nofp\libpic32c.a(_close.o)
 .bss           0x00000000        0x0 c:/program files/microchip/xc32/v3.01/bin/bin/../../lib/gcc/pic32c/8.3.1/../../../../pic32c/lib/thumb/v6-m/nofp\libpic32c.a(_close.o)
 .xc_stack_usage
                0x00000000       0x14 c:/program files/microchip/xc32/v3.01/bin/bin/../../lib/gcc/pic32c/8.3.1/../../../../pic32c/lib/thumb/v6-m/nofp\libpic32c.a(_close.o)
 .xc_stack_usage.hdr
                0x00000000        0xe c:/program files/microchip/xc32/v3.01/bin/bin/../../lib/gcc/pic32c/8.3.1/../../../../pic32c/lib/thumb/v6-m/nofp\libpic32c.a(_close.o)
 .text          0x00000000        0x0 c:/program files/microchip/xc32/v3.01/bin/bin/../../lib/gcc/pic32c/8.3.1/../../../../pic32c/lib/thumb/v6-m/nofp\libpic32c.a(_fstat.o)
 .data          0x00000000        0x0 c:/program files/microchip/xc32/v3.01/bin/bin/../../lib/gcc/pic32c/8.3.1/../../../../pic32c/lib/thumb/v6-m/nofp\libpic32c.a(_fstat.o)
 .bss           0x00000000        0x0 c:/program files/microchip/xc32/v3.01/bin/bin/../../lib/gcc/pic32c/8.3.1/../../../../pic32c/lib/thumb/v6-m/nofp\libpic32c.a(_fstat.o)
 .xc_stack_usage
                0x00000000       0x14 c:/program files/microchip/xc32/v3.01/bin/bin/../../lib/gcc/pic32c/8.3.1/../../../../pic32c/lib/thumb/v6-m/nofp\libpic32c.a(_fstat.o)
 .xc_stack_usage.hdr
                0x00000000        0xe c:/program files/microchip/xc32/v3.01/bin/bin/../../lib/gcc/pic32c/8.3.1/../../../../pic32c/lib/thumb/v6-m/nofp\libpic32c.a(_fstat.o)
 .text          0x00000000        0x0 c:/program files/microchip/xc32/v3.01/bin/bin/../../lib/gcc/pic32c/8.3.1/../../../../pic32c/lib/thumb/v6-m/nofp\libpic32c.a(_isatty.o)
 .data          0x00000000        0x0 c:/program files/microchip/xc32/v3.01/bin/bin/../../lib/gcc/pic32c/8.3.1/../../../../pic32c/lib/thumb/v6-m/nofp\libpic32c.a(_isatty.o)
 .bss           0x00000000        0x0 c:/program files/microchip/xc32/v3.01/bin/bin/../../lib/gcc/pic32c/8.3.1/../../../../pic32c/lib/thumb/v6-m/nofp\libpic32c.a(_isatty.o)
 .xc_stack_usage
                0x00000000       0x15 c:/program files/microchip/xc32/v3.01/bin/bin/../../lib/gcc/pic32c/8.3.1/../../../../pic32c/lib/thumb/v6-m/nofp\libpic32c.a(_isatty.o)
 .xc_stack_usage.hdr
                0x00000000        0xe c:/program files/microchip/xc32/v3.01/bin/bin/../../lib/gcc/pic32c/8.3.1/../../../../pic32c/lib/thumb/v6-m/nofp\libpic32c.a(_isatty.o)
 .text          0x00000000        0x0 c:/program files/microchip/xc32/v3.01/bin/bin/../../lib/gcc/pic32c/8.3.1/../../../../pic32c/lib/thumb/v6-m/nofp\libpic32c.a(_lseek.o)
 .data          0x00000000        0x0 c:/program files/microchip/xc32/v3.01/bin/bin/../../lib/gcc/pic32c/8.3.1/../../../../pic32c/lib/thumb/v6-m/nofp\libpic32c.a(_lseek.o)
 .bss           0x00000000        0x0 c:/program files/microchip/xc32/v3.01/bin/bin/../../lib/gcc/pic32c/8.3.1/../../../../pic32c/lib/thumb/v6-m/nofp\libpic32c.a(_lseek.o)
 .xc_stack_usage
                0x00000000       0x14 c:/program files/microchip/xc32/v3.01/bin/bin/../../lib/gcc/pic32c/8.3.1/../../../../pic32c/lib/thumb/v6-m/nofp\libpic32c.a(_lseek.o)
 .xc_stack_usage.hdr
                0x00000000        0xe c:/program files/microchip/xc32/v3.01/bin/bin/../../lib/gcc/pic32c/8.3.1/../../../../pic32c/lib/thumb/v6-m/nofp\libpic32c.a(_lseek.o)
 .text          0x00000000        0x0 c:/program files/microchip/xc32/v3.01/bin/bin/../../lib/gcc/pic32c/8.3.1/../../../../pic32c/lib/thumb/v6-m/nofp\libpic32c.a(_read.o)
 .data          0x00000000        0x0 c:/program files/microchip/xc32/v3.01/bin/bin/../../lib/gcc/pic32c/8.3.1/../../../../pic32c/lib/thumb/v6-m/nofp\libpic32c.a(_read.o)
 .bss           0x00000000        0x0 c:/program files/microchip/xc32/v3.01/bin/bin/../../lib/gcc/pic32c/8.3.1/../../../../pic32c/lib/thumb/v6-m/nofp\libpic32c.a(_read.o)
 .xc_stack_usage
                0x00000000       0x13 c:/program files/microchip/xc32/v3.01/bin/bin/../../lib/gcc/pic32c/8.3.1/../../../../pic32c/lib/thumb/v6-m/nofp\libpic32c.a(_read.o)
 .xc_stack_usage.hdr
                0x00000000        0xe c:/program files/microchip/xc32/v3.01/bin/bin/../../lib/gcc/pic32c/8.3.1/../../../../pic32c/lib/thumb/v6-m/nofp\libpic32c.a(_read.o)
 .text          0x00000000        0x0 c:/program files/microchip/xc32/v3.01/bin/bin/../../lib/gcc/pic32c/8.3.1/../../../../pic32c/lib/thumb/v6-m/nofp\libpic32c.a(sbrk.o)
 .data          0x00000000        0x0 c:/program files/microchip/xc32/v3.01/bin/bin/../../lib/gcc/pic32c/8.3.1/../../../../pic32c/lib/thumb/v6-m/nofp\libpic32c.a(sbrk.o)
 .xc_stack_usage
                0x00000000       0x13 c:/program files/microchip/xc32/v3.01/bin/bin/../../lib/gcc/pic32c/8.3.1/../../../../pic32c/lib/thumb/v6-m/nofp\libpic32c.a(sbrk.o)
 .xc_stack_usage.hdr
                0x00000000        0xe c:/program files/microchip/xc32/v3.01/bin/bin/../../lib/gcc/pic32c/8.3.1/../../../../pic32c/lib/thumb/v6-m/nofp\libpic32c.a(sbrk.o)
 .text          0x00000000        0x0 c:/program files/microchip/xc32/v3.01/bin/bin/../../lib/gcc/pic32c/8.3.1/../../../../pic32c/lib/thumb/v6-m/nofp\libpic32c.a(_write.o)
 .data          0x00000000        0x0 c:/program files/microchip/xc32/v3.01/bin/bin/../../lib/gcc/pic32c/8.3.1/../../../../pic32c/lib/thumb/v6-m/nofp\libpic32c.a(_write.o)
 .bss           0x00000000        0x0 c:/program files/microchip/xc32/v3.01/bin/bin/../../lib/gcc/pic32c/8.3.1/../../../../pic32c/lib/thumb/v6-m/nofp\libpic32c.a(_write.o)
 .xc_stack_usage
                0x00000000       0x14 c:/program files/microchip/xc32/v3.01/bin/bin/../../lib/gcc/pic32c/8.3.1/../../../../pic32c/lib/thumb/v6-m/nofp\libpic32c.a(_write.o)
 .xc_stack_usage.hdr
                0x00000000        0xe c:/program files/microchip/xc32/v3.01/bin/bin/../../lib/gcc/pic32c/8.3.1/../../../../pic32c/lib/thumb/v6-m/nofp\libpic32c.a(_write.o)
 .text          0x00000000        0x0 c:/program files/microchip/xc32/v3.01/bin/bin/../../lib/gcc/pic32c/8.3.1/../../../../pic32c/lib/thumb/v6-m/nofp\libpic32c.a(close.o)
 .data          0x00000000        0x0 c:/program files/microchip/xc32/v3.01/bin/bin/../../lib/gcc/pic32c/8.3.1/../../../../pic32c/lib/thumb/v6-m/nofp\libpic32c.a(close.o)
 .bss           0x00000000        0x0 c:/program files/microchip/xc32/v3.01/bin/bin/../../lib/gcc/pic32c/8.3.1/../../../../pic32c/lib/thumb/v6-m/nofp\libpic32c.a(close.o)
 .xc_stack_usage
                0x00000000       0x13 c:/program files/microchip/xc32/v3.01/bin/bin/../../lib/gcc/pic32c/8.3.1/../../../../pic32c/lib/thumb/v6-m/nofp\libpic32c.a(close.o)
 .gnu.warning.closestub
                0x00000000        0x0 c:/program files/microchip/xc32/v3.01/bin/bin/../../lib/gcc/pic32c/8.3.1/../../../../pic32c/lib/thumb/v6-m/nofp\libpic32c.a(close.o)
 .xc_stack_usage.hdr
                0x00000000        0xe c:/program files/microchip/xc32/v3.01/bin/bin/../../lib/gcc/pic32c/8.3.1/../../../../pic32c/lib/thumb/v6-m/nofp\libpic32c.a(close.o)
 .text          0x00000000        0x0 c:/program files/microchip/xc32/v3.01/bin/bin/../../lib/gcc/pic32c/8.3.1/../../../../pic32c/lib/thumb/v6-m/nofp\libpic32c.a(fstat.o)
 .data          0x00000000        0x0 c:/program files/microchip/xc32/v3.01/bin/bin/../../lib/gcc/pic32c/8.3.1/../../../../pic32c/lib/thumb/v6-m/nofp\libpic32c.a(fstat.o)
 .bss           0x00000000        0x0 c:/program files/microchip/xc32/v3.01/bin/bin/../../lib/gcc/pic32c/8.3.1/../../../../pic32c/lib/thumb/v6-m/nofp\libpic32c.a(fstat.o)
 .xc_stack_usage
                0x00000000       0x13 c:/program files/microchip/xc32/v3.01/bin/bin/../../lib/gcc/pic32c/8.3.1/../../../../pic32c/lib/thumb/v6-m/nofp\libpic32c.a(fstat.o)
 .xc_stack_usage.hdr
                0x00000000        0xe c:/program files/microchip/xc32/v3.01/bin/bin/../../lib/gcc/pic32c/8.3.1/../../../../pic32c/lib/thumb/v6-m/nofp\libpic32c.a(fstat.o)
 .text          0x00000000        0x0 c:/program files/microchip/xc32/v3.01/bin/bin/../../lib/gcc/pic32c/8.3.1/../../../../pic32c/lib/thumb/v6-m/nofp\libpic32c.a(isatty.o)
 .data          0x00000000        0x0 c:/program files/microchip/xc32/v3.01/bin/bin/../../lib/gcc/pic32c/8.3.1/../../../../pic32c/lib/thumb/v6-m/nofp\libpic32c.a(isatty.o)
 .bss           0x00000000        0x0 c:/program files/microchip/xc32/v3.01/bin/bin/../../lib/gcc/pic32c/8.3.1/../../../../pic32c/lib/thumb/v6-m/nofp\libpic32c.a(isatty.o)
 .xc_stack_usage
                0x00000000       0x14 c:/program files/microchip/xc32/v3.01/bin/bin/../../lib/gcc/pic32c/8.3.1/../../../../pic32c/lib/thumb/v6-m/nofp\libpic32c.a(isatty.o)
 .xc_stack_usage.hdr
                0x00000000        0xe c:/program files/microchip/xc32/v3.01/bin/bin/../../lib/gcc/pic32c/8.3.1/../../../../pic32c/lib/thumb/v6-m/nofp\libpic32c.a(isatty.o)
 .text          0x00000000        0x0 c:/program files/microchip/xc32/v3.01/bin/bin/../../lib/gcc/pic32c/8.3.1/../../../../pic32c/lib/thumb/v6-m/nofp\libpic32c.a(lseek.o)
 .data          0x00000000        0x0 c:/program files/microchip/xc32/v3.01/bin/bin/../../lib/gcc/pic32c/8.3.1/../../../../pic32c/lib/thumb/v6-m/nofp\libpic32c.a(lseek.o)
 .bss           0x00000000        0x0 c:/program files/microchip/xc32/v3.01/bin/bin/../../lib/gcc/pic32c/8.3.1/../../../../pic32c/lib/thumb/v6-m/nofp\libpic32c.a(lseek.o)
 .xc_stack_usage
                0x00000000       0x13 c:/program files/microchip/xc32/v3.01/bin/bin/../../lib/gcc/pic32c/8.3.1/../../../../pic32c/lib/thumb/v6-m/nofp\libpic32c.a(lseek.o)
 .xc_stack_usage.hdr
                0x00000000        0xe c:/program files/microchip/xc32/v3.01/bin/bin/../../lib/gcc/pic32c/8.3.1/../../../../pic32c/lib/thumb/v6-m/nofp\libpic32c.a(lseek.o)
 .text          0x00000000        0x0 c:/program files/microchip/xc32/v3.01/bin/bin/../../lib/gcc/pic32c/8.3.1/../../../../pic32c/lib/thumb/v6-m/nofp\libpic32c.a(read.o)
 .data          0x00000000        0x0 c:/program files/microchip/xc32/v3.01/bin/bin/../../lib/gcc/pic32c/8.3.1/../../../../pic32c/lib/thumb/v6-m/nofp\libpic32c.a(read.o)
 .bss           0x00000000        0x0 c:/program files/microchip/xc32/v3.01/bin/bin/../../lib/gcc/pic32c/8.3.1/../../../../pic32c/lib/thumb/v6-m/nofp\libpic32c.a(read.o)
 .xc_stack_usage
                0x00000000       0x12 c:/program files/microchip/xc32/v3.01/bin/bin/../../lib/gcc/pic32c/8.3.1/../../../../pic32c/lib/thumb/v6-m/nofp\libpic32c.a(read.o)
 .xc_stack_usage.hdr
                0x00000000        0xe c:/program files/microchip/xc32/v3.01/bin/bin/../../lib/gcc/pic32c/8.3.1/../../../../pic32c/lib/thumb/v6-m/nofp\libpic32c.a(read.o)
 .text          0x00000000        0x0 c:/program files/microchip/xc32/v3.01/bin/bin/../../lib/gcc/pic32c/8.3.1/../../../../pic32c/lib/thumb/v6-m/nofp\libpic32c.a(write.o)
 .data          0x00000000        0x0 c:/program files/microchip/xc32/v3.01/bin/bin/../../lib/gcc/pic32c/8.3.1/../../../../pic32c/lib/thumb/v6-m/nofp\libpic32c.a(write.o)
 .bss           0x00000000        0x0 c:/program files/microchip/xc32/v3.01/bin/bin/../../lib/gcc/pic32c/8.3.1/../../../../pic32c/lib/thumb/v6-m/nofp\libpic32c.a(write.o)
 .xc_stack_usage
                0x00000000       0x13 c:/program files/microchip/xc32/v3.01/bin/bin/../../lib/gcc/pic32c/8.3.1/../../../../pic32c/lib/thumb/v6-m/nofp\libpic32c.a(write.o)
 .xc_stack_usage.hdr
                0x00000000        0xe c:/program files/microchip/xc32/v3.01/bin/bin/../../lib/gcc/pic32c/8.3.1/../../../../pic32c/lib/thumb/v6-m/nofp\libpic32c.a(write.o)
 .data          0x00000000        0x0 c:/program files/microchip/xc32/v3.01/bin/bin/../../lib/gcc/pic32c/8.3.1/thumb/v6-m/nofp\libgcc.a(_udivsi3.o)
 .bss           0x00000000        0x0 c:/program files/microchip/xc32/v3.01/bin/bin/../../lib/gcc/pic32c/8.3.1/thumb/v6-m/nofp\libgcc.a(_udivsi3.o)
 .xc_stack_usage.hdr
                0x00000000        0xe c:/program files/microchip/xc32/v3.01/bin/bin/../../lib/gcc/pic32c/8.3.1/thumb/v6-m/nofp\libgcc.a(_udivsi3.o)
 .xc_stack_usage
                0x00000000       0x35 c:/program files/microchip/xc32/v3.01/bin/bin/../../lib/gcc/pic32c/8.3.1/thumb/v6-m/nofp\libgcc.a(_udivsi3.o)
 .text          0x00000000        0x0 c:/program files/microchip/xc32/v3.01/bin/bin/../../lib/gcc/pic32c/8.3.1/thumb/v6-m/nofp/crtend.o
 .data          0x00000000        0x0 c:/program files/microchip/xc32/v3.01/bin/bin/../../lib/gcc/pic32c/8.3.1/thumb/v6-m/nofp/crtend.o
 .bss           0x00000000        0x0 c:/program files/microchip/xc32/v3.01/bin/bin/../../lib/gcc/pic32c/8.3.1/thumb/v6-m/nofp/crtend.o
 .eh_frame      0x00000000        0x4 c:/program files/microchip/xc32/v3.01/bin/bin/../../lib/gcc/pic32c/8.3.1/thumb/v6-m/nofp/crtend.o
 .xc_stack_usage.hdr
                0x00000000        0xe c:/program files/microchip/xc32/v3.01/bin/bin/../../lib/gcc/pic32c/8.3.1/thumb/v6-m/nofp/crtend.o
 .comment       0x00000000       0x54 c:/program files/microchip/xc32/v3.01/bin/bin/../../lib/gcc/pic32c/8.3.1/thumb/v6-m/nofp/crtend.o
 .ARM.attributes
                0x00000000       0x2c c:/program files/microchip/xc32/v3.01/bin/bin/../../lib/gcc/pic32c/8.3.1/thumb/v6-m/nofp/crtend.o
 .text          0x00000000        0x0 c:/program files/microchip/xc32/v3.01/bin/bin/../../lib/gcc/pic32c/8.3.1/thumb/v6-m/nofp/crtn.o
 .data          0x00000000        0x0 c:/program files/microchip/xc32/v3.01/bin/bin/../../lib/gcc/pic32c/8.3.1/thumb/v6-m/nofp/crtn.o
 .bss           0x00000000        0x0 c:/program files/microchip/xc32/v3.01/bin/bin/../../lib/gcc/pic32c/8.3.1/thumb/v6-m/nofp/crtn.o
 .xc_stack_usage.hdr
                0x00000000        0xe c:/program files/microchip/xc32/v3.01/bin/bin/../../lib/gcc/pic32c/8.3.1/thumb/v6-m/nofp/crtn.o

Memory Configuration

Name             Origin             Length             Attributes
rom              0x00000000         0x00040000         xrl
ram              0x20000000         0x00008000         xw !r
config_00804000  0x00804000         0x00000004
config_00804004  0x00804004         0x00000004
*default*        0x00000000         0xffffffff

Linker script and memory map

LOAD c:/program files/microchip/xc32/v3.01/bin/bin/../../lib/gcc/pic32c/8.3.1/thumb/v6-m/nofp/crti.o
LOAD c:/program files/microchip/xc32/v3.01/bin/bin/../../lib/gcc/pic32c/8.3.1/thumb/v6-m/nofp/crtbegin.o
LOAD build/default/production/_ext/869808652/drv_usart.o
LOAD build/default/production/_ext/1529399856/osal_freertos.o
LOAD build/default/production/_ext/1984496892/plib_clock.o
LOAD build/default/production/_ext/1986646378/plib_evsys.o
LOAD build/default/production/_ext/1865468468/plib_nvic.o
LOAD build/default/production/_ext/1593096446/plib_nvmctrl.o
LOAD build/default/production/_ext/1865521619/plib_port.o
LOAD build/default/production/_ext/504274921/plib_sercom5_usart.o
LOAD build/default/production/_ext/163028504/xc32_monitor.o
LOAD build/default/production/_ext/14461671/sys_dma.o
LOAD build/default/production/_ext/1881668453/sys_int.o
LOAD build/default/production/_ext/1171490990/initialization.o
LOAD build/default/production/_ext/1171490990/interrupts.o
LOAD build/default/production/_ext/1171490990/exceptions.o
LOAD build/default/production/_ext/1171490990/startup_xc32.o
LOAD build/default/production/_ext/1171490990/libc_syscalls.o
LOAD build/default/production/_ext/1171490990/freertos_hooks.o
LOAD build/default/production/_ext/1171490990/tasks.o
LOAD build/default/production/_ext/1624415188/port.o
LOAD build/default/production/_ext/1665200909/heap_1.o
LOAD build/default/production/_ext/404212886/croutine.o
LOAD build/default/production/_ext/404212886/list.o
LOAD build/default/production/_ext/404212886/queue.o
LOAD build/default/production/_ext/404212886/FreeRTOS_tasks.o
LOAD build/default/production/_ext/404212886/timers.o
LOAD build/default/production/_ext/404212886/event_groups.o
LOAD build/default/production/_ext/404212886/stream_buffer.o
LOAD build/default/production/_ext/1360937237/main_d21.o
LOAD build/default/production/_ext/1360937237/app1.o
LOAD build/default/production/_ext/1360937237/app2.o
LOAD build/default/production/_ext/1360937237/app3.o
LOAD build/default/production/_ext/829342655/plib_tc5.o
LOAD build/default/production/_ext/829342655/plib_tc4.o
                0x00000001                __MPLAB_BUILD = 0x1
                0x00040000                __rom_end = (ORIGIN (rom) + LENGTH (rom))
                0x20008000                __ram_end = (ORIGIN (ram) + LENGTH (ram))

.config_00804000
                0x00804000        0x4
 *(.config_00804000)
 .config_00804000
                0x00804000        0x4 build/default/production/_ext/1171490990/initialization.o
                0x00804000                __config_00804000

.config_00804004
                0x00804004        0x4
 *(.config_00804004)
 .config_00804004
                0x00804004        0x4 build/default/production/_ext/1171490990/initialization.o
                0x00804004                __config_00804004

.vectors        0x00000000       0xb0
                0x00000000                . = ALIGN (0x4)
                0x00000000                _sfixed = .
 *(.vectors .vectors.* .vectors_default .vectors_default.*)
 .vectors       0x00000000       0xb0 build/default/production/_ext/1171490990/interrupts.o
                0x00000000                exception_table
 *(.isr_vector)
 *(.reset*)
 *(.after_vectors)

.text           0x000000b0       0x20
                0x000000b0                . = ALIGN (0x4)
 *(.glue_7t)
 .glue_7t       0x000000b0        0x0 linker stubs
 *(.glue_7)
 .glue_7        0x000000b0        0x0 linker stubs
 *(.gnu.linkonce.r.*)
 *(.ARM.extab* .gnu.linkonce.armextab.*)
                0x000000b0                . = ALIGN (0x4)
 *(.init)
 .init          0x000000b0        0x4 c:/program files/microchip/xc32/v3.01/bin/bin/../../lib/gcc/pic32c/8.3.1/thumb/v6-m/nofp/crti.o
                0x000000b0                _init
 .init          0x000000b4        0x8 c:/program files/microchip/xc32/v3.01/bin/bin/../../lib/gcc/pic32c/8.3.1/thumb/v6-m/nofp/crtn.o
                0x000000bc                . = ALIGN (0x4)
                0x000000bc                __preinit_array_start = .
 *(.preinit_array)
                0x000000bc                __preinit_array_end = .
                0x000000bc                . = ALIGN (0x4)
                0x000000bc                __init_array_start = .
 *(SORT_BY_NAME(.init_array.*))
 *(.init_array)
 .init_array    0x000000bc        0x4 c:/program files/microchip/xc32/v3.01/bin/bin/../../lib/gcc/pic32c/8.3.1/thumb/v6-m/nofp/crtbegin.o
                0x000000c0                __init_array_end = .
                0x000000c0                . = ALIGN (0x4)
 *crtbegin.o(.ctors)
 *(EXCLUDE_FILE(*crtend.o) .ctors)
 *(SORT_BY_NAME(.ctors.*))
 *crtend.o(.ctors)
                0x000000c0                . = ALIGN (0x4)
 *(.fini)
 .fini          0x000000c0        0x4 c:/program files/microchip/xc32/v3.01/bin/bin/../../lib/gcc/pic32c/8.3.1/thumb/v6-m/nofp/crti.o
                0x000000c0                _fini
 .fini          0x000000c4        0x8 c:/program files/microchip/xc32/v3.01/bin/bin/../../lib/gcc/pic32c/8.3.1/thumb/v6-m/nofp/crtn.o
                0x000000cc                . = ALIGN (0x4)
                0x000000cc                __fini_array_start = .
 *(.fini_array)
 .fini_array    0x000000cc        0x4 c:/program files/microchip/xc32/v3.01/bin/bin/../../lib/gcc/pic32c/8.3.1/thumb/v6-m/nofp/crtbegin.o
 *(SORT_BY_NAME(.fini_array.*))
                0x000000d0                __fini_array_end = .
 *crtbegin.o(.dtors)
 *(EXCLUDE_FILE(*crtend.o) .dtors)
 *(SORT_BY_NAME(.dtors.*))
 *crtend.o(.dtors)
                0x000000d0                . = ALIGN (0x4)
                0x000000d0                _efixed = .
                [!provide]                PROVIDE (__exidx_start = .)

.ARM.exidx      0x000000d0        0x8
 *(.ARM.exidx* .gnu.linkonce.armexidx.*)
 .ARM.exidx     0x000000d0        0x8 c:/program files/microchip/xc32/v3.01/bin/bin/../../lib/gcc/pic32c/8.3.1/thumb/v6-m/nofp\libgcc.a(_udivmoddi4.o)
                [!provide]                PROVIDE (__exidx_end = .)
                0x000000d8                . = ALIGN (0x4)
                0x000000d8                _etext = .

.bss            0x20000000        0x4
                0x20000000                . = ALIGN (0x4)
                0x20000000                __bss_start__ = .
                0x20000000                _sbss = .
                0x20000000                _szero = .
 *(COMMON)
 COMMON         0x20000000        0x4 c:/program files/microchip/xc32/v3.01/bin/bin/../../lib/gcc/pic32c/8.3.1/../../../../pic32c/lib/thumb/v6-m/nofp\libc_nano.a(lib_a-reent.o)
                0x20000000                errno
                0x20000004                . = ALIGN (0x4)
                0x20000004                __bss_end__ = .
                0x20000004                _ebss = .
                0x20000004                _ezero = .
                0x20000004                . = ALIGN (0x4)
                0x20000004                _end = .
                0x20007fff                _ram_end_ = ((ORIGIN (ram) + LENGTH (ram)) - 0x1)
                0x00000200                _min_heap_size = 0x200
START GROUP
LOAD c:/program files/microchip/xc32/v3.01/bin/bin/../../lib/gcc/pic32c/8.3.1/../../../../pic32c/lib/thumb/v6-m/nofp\libpic32c.a
LOAD c:/program files/microchip/xc32/v3.01/bin/bin/../../lib/gcc/pic32c/8.3.1/thumb/v6-m/nofp\libgcc.a
LOAD c:/program files/microchip/xc32/v3.01/bin/bin/../../lib/gcc/pic32c/8.3.1/../../../../pic32c/lib/thumb/v6-m/nofp\libm_nano.a
LOAD c:/program files/microchip/xc32/v3.01/bin/bin/../../lib/gcc/pic32c/8.3.1/../../../../pic32c/lib/thumb/v6-m/nofp\libc_nano.a
END GROUP
LOAD c:/program files/microchip/xc32/v3.01/bin/bin/../../lib/gcc/pic32c/8.3.1/thumb/v6-m/nofp/crtend.o
LOAD c:/program files/microchip/xc32/v3.01/bin/bin/../../lib/gcc/pic32c/8.3.1/thumb/v6-m/nofp/crtn.o
OUTPUT(dist/default/production/samd21_app045_freertos.X.production.elf elf32-littlearm)
LOAD stack
LOAD data_init

.ARM.attributes
                0x00000000       0x28
 .ARM.attributes
                0x00000000       0x1e c:/program files/microchip/xc32/v3.01/bin/bin/../../lib/gcc/pic32c/8.3.1/thumb/v6-m/nofp/crti.o
 .ARM.attributes
                0x0000001e       0x2c c:/program files/microchip/xc32/v3.01/bin/bin/../../lib/gcc/pic32c/8.3.1/thumb/v6-m/nofp/crtbegin.o
 .ARM.attributes
                0x0000004a       0x2c build/default/production/_ext/869808652/drv_usart.o
 .ARM.attributes
                0x00000076       0x2c build/default/production/_ext/1529399856/osal_freertos.o
 .ARM.attributes
                0x000000a2       0x2c build/default/production/_ext/1984496892/plib_clock.o
 .ARM.attributes
                0x000000ce       0x2c build/default/production/_ext/1986646378/plib_evsys.o
 .ARM.attributes
                0x000000fa       0x2c build/default/production/_ext/1865468468/plib_nvic.o
 .ARM.attributes
                0x00000126       0x2c build/default/production/_ext/1593096446/plib_nvmctrl.o
 .ARM.attributes
                0x00000152       0x2c build/default/production/_ext/1865521619/plib_port.o
 .ARM.attributes
                0x0000017e       0x2c build/default/production/_ext/504274921/plib_sercom5_usart.o
 .ARM.attributes
                0x000001aa       0x2c build/default/production/_ext/163028504/xc32_monitor.o
 .ARM.attributes
                0x000001d6       0x2c build/default/production/_ext/14461671/sys_dma.o
 .ARM.attributes
                0x00000202       0x2c build/default/production/_ext/1171490990/initialization.o
 .ARM.attributes
                0x0000022e       0x2c build/default/production/_ext/1171490990/interrupts.o
 .ARM.attributes
                0x0000025a       0x2c build/default/production/_ext/1171490990/exceptions.o
 .ARM.attributes
                0x00000286       0x2c build/default/production/_ext/1171490990/startup_xc32.o
 .ARM.attributes
                0x000002b2       0x2c build/default/production/_ext/1171490990/freertos_hooks.o
 .ARM.attributes
                0x000002de       0x2c build/default/production/_ext/1171490990/tasks.o
 .ARM.attributes
                0x0000030a       0x2c build/default/production/_ext/1624415188/port.o
 .ARM.attributes
                0x00000336       0x2c build/default/production/_ext/1665200909/heap_1.o
 .ARM.attributes
                0x00000362       0x2c build/default/production/_ext/404212886/list.o
 .ARM.attributes
                0x0000038e       0x2c build/default/production/_ext/404212886/queue.o
 .ARM.attributes
                0x000003ba       0x2c build/default/production/_ext/404212886/FreeRTOS_tasks.o
 .ARM.attributes
                0x000003e6       0x2c build/default/production/_ext/1360937237/main_d21.o
 .ARM.attributes
                0x00000412       0x2c build/default/production/_ext/1360937237/app1.o
 .ARM.attributes
                0x0000043e       0x2c build/default/production/_ext/1360937237/app2.o
 .ARM.attributes
                0x0000046a       0x2c build/default/production/_ext/1360937237/app3.o
 .ARM.attributes
                0x00000496       0x2c build/default/production/_ext/829342655/plib_tc5.o
 .ARM.attributes
                0x000004c2       0x2c build/default/production/_ext/829342655/plib_tc4.o
 .ARM.attributes
                0x000004ee       0x2c c:/program files/microchip/xc32/v3.01/bin/bin/../../lib/gcc/pic32c/8.3.1/../../../../pic32c/lib/thumb/v6-m/nofp\libpic32c.a(data_init.o)
 .ARM.attributes
                0x0000051a       0x1e c:/program files/microchip/xc32/v3.01/bin/bin/../../lib/gcc/pic32c/8.3.1/thumb/v6-m/nofp\libgcc.a(_aeabi_uldivmod.o)
 .ARM.attributes
                0x00000538       0x2c c:/program files/microchip/xc32/v3.01/bin/bin/../../lib/gcc/pic32c/8.3.1/thumb/v6-m/nofp\libgcc.a(_udivmoddi4.o)
 .ARM.attributes
                0x00000564       0x1e c:/program files/microchip/xc32/v3.01/bin/bin/../../lib/gcc/pic32c/8.3.1/thumb/v6-m/nofp\libgcc.a(_dvmd_tls.o)
 .ARM.attributes
                0x00000582       0x1e c:/program files/microchip/xc32/v3.01/bin/bin/../../lib/gcc/pic32c/8.3.1/thumb/v6-m/nofp\libgcc.a(_clzdi2.o)
 .ARM.attributes
                0x000005a0       0x1e c:/program files/microchip/xc32/v3.01/bin/bin/../../lib/gcc/pic32c/8.3.1/thumb/v6-m/nofp\libgcc.a(_clzsi2.o)
 .ARM.attributes
                0x000005be       0x2c c:/program files/microchip/xc32/v3.01/bin/bin/../../lib/gcc/pic32c/8.3.1/../../../../pic32c/lib/thumb/v6-m/nofp\libc_nano.a(_lib_a-sprintf.cdnopuxX.o)
 .ARM.attributes
                0x000005ea       0x2c c:/program files/microchip/xc32/v3.01/bin/bin/../../lib/gcc/pic32c/8.3.1/../../../../pic32c/lib/thumb/v6-m/nofp\libc_nano.a(lib_a-init.o)
 .ARM.attributes
                0x00000616       0x2c c:/program files/microchip/xc32/v3.01/bin/bin/../../lib/gcc/pic32c/8.3.1/../../../../pic32c/lib/thumb/v6-m/nofp\libc_nano.a(lib_a-memcpy-stub.o)
 .ARM.attributes
                0x00000642       0x2c c:/program files/microchip/xc32/v3.01/bin/bin/../../lib/gcc/pic32c/8.3.1/../../../../pic32c/lib/thumb/v6-m/nofp\libc_nano.a(lib_a-memset.o)
 .ARM.attributes
                0x0000066e       0x1c c:/program files/microchip/xc32/v3.01/bin/bin/../../lib/gcc/pic32c/8.3.1/../../../../pic32c/lib/thumb/v6-m/nofp\libc_nano.a(lib_a-strlen.o)
 .ARM.attributes
                0x0000068a       0x2c c:/program files/microchip/xc32/v3.01/bin/bin/../../lib/gcc/pic32c/8.3.1/../../../../pic32c/lib/thumb/v6-m/nofp\libc_nano.a(_lib_a-nano-vfprintf.cdnopuxX.o)
 .ARM.attributes
                0x000006b6       0x2c c:/program files/microchip/xc32/v3.01/bin/bin/../../lib/gcc/pic32c/8.3.1/../../../../pic32c/lib/thumb/v6-m/nofp\libc_nano.a(lib_a-__ssfputs.o)
 .ARM.attributes
                0x000006e2       0x2c c:/program files/microchip/xc32/v3.01/bin/bin/../../lib/gcc/pic32c/8.3.1/../../../../pic32c/lib/thumb/v6-m/nofp\libc_nano.a(lib_a-findfp.o)
 .ARM.attributes
                0x0000070e       0x2c c:/program files/microchip/xc32/v3.01/bin/bin/../../lib/gcc/pic32c/8.3.1/../../../../pic32c/lib/thumb/v6-m/nofp\libc_nano.a(lib_a-fputwc.o)
 .ARM.attributes
                0x0000073a       0x2c c:/program files/microchip/xc32/v3.01/bin/bin/../../lib/gcc/pic32c/8.3.1/../../../../pic32c/lib/thumb/v6-m/nofp\libc_nano.a(lib_a-fwalk.o)
 .ARM.attributes
                0x00000766       0x2c c:/program files/microchip/xc32/v3.01/bin/bin/../../lib/gcc/pic32c/8.3.1/../../../../pic32c/lib/thumb/v6-m/nofp\libc_nano.a(lib_a-impure.o)
 .ARM.attributes
                0x00000792       0x2c c:/program files/microchip/xc32/v3.01/bin/bin/../../lib/gcc/pic32c/8.3.1/../../../../pic32c/lib/thumb/v6-m/nofp\libc_nano.a(lib_a-locale.o)
 .ARM.attributes
                0x000007be       0x2c c:/program files/microchip/xc32/v3.01/bin/bin/../../lib/gcc/pic32c/8.3.1/../../../../pic32c/lib/thumb/v6-m/nofp\libc_nano.a(lib_a-mbtowc_r.o)
 .ARM.attributes
                0x000007ea       0x2c c:/program files/microchip/xc32/v3.01/bin/bin/../../lib/gcc/pic32c/8.3.1/../../../../pic32c/lib/thumb/v6-m/nofp\libc_nano.a(lib_a-memchr-stub.o)
 .ARM.attributes
                0x00000816       0x2c c:/program files/microchip/xc32/v3.01/bin/bin/../../lib/gcc/pic32c/8.3.1/../../../../pic32c/lib/thumb/v6-m/nofp\libc_nano.a(lib_a-nano-mallocr.o)
 .ARM.attributes
                0x00000842       0x2c c:/program files/microchip/xc32/v3.01/bin/bin/../../lib/gcc/pic32c/8.3.1/../../../../pic32c/lib/thumb/v6-m/nofp\libc_nano.a(lib_a-nano-vfprintf_i.o)
 .ARM.attributes
                0x0000086e       0x2c c:/program files/microchip/xc32/v3.01/bin/bin/../../lib/gcc/pic32c/8.3.1/../../../../pic32c/lib/thumb/v6-m/nofp\libc_nano.a(lib_a-sbrkr.o)
 .ARM.attributes
                0x0000089a       0x2c c:/program files/microchip/xc32/v3.01/bin/bin/../../lib/gcc/pic32c/8.3.1/../../../../pic32c/lib/thumb/v6-m/nofp\libc_nano.a(lib_a-stdio.o)
 .ARM.attributes
                0x000008c6       0x2c c:/program files/microchip/xc32/v3.01/bin/bin/../../lib/gcc/pic32c/8.3.1/../../../../pic32c/lib/thumb/v6-m/nofp\libc_nano.a(lib_a-wbuf.o)
 .ARM.attributes
                0x000008f2       0x2c c:/program files/microchip/xc32/v3.01/bin/bin/../../lib/gcc/pic32c/8.3.1/../../../../pic32c/lib/thumb/v6-m/nofp\libc_nano.a(lib_a-wcrtomb.o)
 .ARM.attributes
                0x0000091e       0x2c c:/program files/microchip/xc32/v3.01/bin/bin/../../lib/gcc/pic32c/8.3.1/../../../../pic32c/lib/thumb/v6-m/nofp\libc_nano.a(lib_a-wctomb_r.o)
 .ARM.attributes
                0x0000094a       0x2c c:/program files/microchip/xc32/v3.01/bin/bin/../../lib/gcc/pic32c/8.3.1/../../../../pic32c/lib/thumb/v6-m/nofp\libc_nano.a(lib_a-writer.o)
 .ARM.attributes
                0x00000976       0x2c c:/program files/microchip/xc32/v3.01/bin/bin/../../lib/gcc/pic32c/8.3.1/../../../../pic32c/lib/thumb/v6-m/nofp\libc_nano.a(lib_a-wsetup.o)
 .ARM.attributes
                0x000009a2       0x2c c:/program files/microchip/xc32/v3.01/bin/bin/../../lib/gcc/pic32c/8.3.1/../../../../pic32c/lib/thumb/v6-m/nofp\libc_nano.a(lib_a-closer.o)
 .ARM.attributes
                0x000009ce       0x2c c:/program files/microchip/xc32/v3.01/bin/bin/../../lib/gcc/pic32c/8.3.1/../../../../pic32c/lib/thumb/v6-m/nofp\libc_nano.a(lib_a-ctype_.o)
 .ARM.attributes
                0x000009fa       0x2c c:/program files/microchip/xc32/v3.01/bin/bin/../../lib/gcc/pic32c/8.3.1/../../../../pic32c/lib/thumb/v6-m/nofp\libc_nano.a(lib_a-fflush.o)
 .ARM.attributes
                0x00000a26       0x2c c:/program files/microchip/xc32/v3.01/bin/bin/../../lib/gcc/pic32c/8.3.1/../../../../pic32c/lib/thumb/v6-m/nofp\libc_nano.a(lib_a-lseekr.o)
 .ARM.attributes
                0x00000a52       0x2c c:/program files/microchip/xc32/v3.01/bin/bin/../../lib/gcc/pic32c/8.3.1/../../../../pic32c/lib/thumb/v6-m/nofp\libc_nano.a(lib_a-makebuf.o)
 .ARM.attributes
                0x00000a7e       0x2c c:/program files/microchip/xc32/v3.01/bin/bin/../../lib/gcc/pic32c/8.3.1/../../../../pic32c/lib/thumb/v6-m/nofp\libc_nano.a(lib_a-mlock.o)
 .ARM.attributes
                0x00000aaa       0x2c c:/program files/microchip/xc32/v3.01/bin/bin/../../lib/gcc/pic32c/8.3.1/../../../../pic32c/lib/thumb/v6-m/nofp\libc_nano.a(lib_a-nano-freer.o)
 .ARM.attributes
                0x00000ad6       0x2c c:/program files/microchip/xc32/v3.01/bin/bin/../../lib/gcc/pic32c/8.3.1/../../../../pic32c/lib/thumb/v6-m/nofp\libc_nano.a(lib_a-readr.o)
 .ARM.attributes
                0x00000b02       0x2c c:/program files/microchip/xc32/v3.01/bin/bin/../../lib/gcc/pic32c/8.3.1/../../../../pic32c/lib/thumb/v6-m/nofp\libc_nano.a(lib_a-reent.o)
 .ARM.attributes
                0x00000b2e       0x2c c:/program files/microchip/xc32/v3.01/bin/bin/../../lib/gcc/pic32c/8.3.1/../../../../pic32c/lib/thumb/v6-m/nofp\libc_nano.a(lib_a-fstatr.o)
 .ARM.attributes
                0x00000b5a       0x2c c:/program files/microchip/xc32/v3.01/bin/bin/../../lib/gcc/pic32c/8.3.1/../../../../pic32c/lib/thumb/v6-m/nofp\libc_nano.a(lib_a-isattyr.o)
 .ARM.attributes
                0x00000b86       0x2c c:/program files/microchip/xc32/v3.01/bin/bin/../../lib/gcc/pic32c/8.3.1/../../../../pic32c/lib/thumb/v6-m/nofp\libpic32c.a(_close.o)
 .ARM.attributes
                0x00000bb2       0x2c c:/program files/microchip/xc32/v3.01/bin/bin/../../lib/gcc/pic32c/8.3.1/../../../../pic32c/lib/thumb/v6-m/nofp\libpic32c.a(_fstat.o)
 .ARM.attributes
                0x00000bde       0x2c c:/program files/microchip/xc32/v3.01/bin/bin/../../lib/gcc/pic32c/8.3.1/../../../../pic32c/lib/thumb/v6-m/nofp\libpic32c.a(_isatty.o)
 .ARM.attributes
                0x00000c0a       0x2c c:/program files/microchip/xc32/v3.01/bin/bin/../../lib/gcc/pic32c/8.3.1/../../../../pic32c/lib/thumb/v6-m/nofp\libpic32c.a(_lseek.o)
 .ARM.attributes
                0x00000c36       0x2c c:/program files/microchip/xc32/v3.01/bin/bin/../../lib/gcc/pic32c/8.3.1/../../../../pic32c/lib/thumb/v6-m/nofp\libpic32c.a(_read.o)
 .ARM.attributes
                0x00000c62       0x2c c:/program files/microchip/xc32/v3.01/bin/bin/../../lib/gcc/pic32c/8.3.1/../../../../pic32c/lib/thumb/v6-m/nofp\libpic32c.a(sbrk.o)
 .ARM.attributes
                0x00000c8e       0x2c c:/program files/microchip/xc32/v3.01/bin/bin/../../lib/gcc/pic32c/8.3.1/../../../../pic32c/lib/thumb/v6-m/nofp\libpic32c.a(_write.o)
 .ARM.attributes
                0x00000cba       0x2c c:/program files/microchip/xc32/v3.01/bin/bin/../../lib/gcc/pic32c/8.3.1/../../../../pic32c/lib/thumb/v6-m/nofp\libpic32c.a(close.o)
 .ARM.attributes
                0x00000ce6       0x2c c:/program files/microchip/xc32/v3.01/bin/bin/../../lib/gcc/pic32c/8.3.1/../../../../pic32c/lib/thumb/v6-m/nofp\libpic32c.a(fstat.o)
 .ARM.attributes
                0x00000d12       0x2c c:/program files/microchip/xc32/v3.01/bin/bin/../../lib/gcc/pic32c/8.3.1/../../../../pic32c/lib/thumb/v6-m/nofp\libpic32c.a(isatty.o)
 .ARM.attributes
                0x00000d3e       0x2c c:/program files/microchip/xc32/v3.01/bin/bin/../../lib/gcc/pic32c/8.3.1/../../../../pic32c/lib/thumb/v6-m/nofp\libpic32c.a(lseek.o)
 .ARM.attributes
                0x00000d6a       0x2c c:/program files/microchip/xc32/v3.01/bin/bin/../../lib/gcc/pic32c/8.3.1/../../../../pic32c/lib/thumb/v6-m/nofp\libpic32c.a(read.o)
 .ARM.attributes
                0x00000d96       0x2c c:/program files/microchip/xc32/v3.01/bin/bin/../../lib/gcc/pic32c/8.3.1/../../../../pic32c/lib/thumb/v6-m/nofp\libpic32c.a(write.o)
 .ARM.attributes
                0x00000dc2       0x1e c:/program files/microchip/xc32/v3.01/bin/bin/../../lib/gcc/pic32c/8.3.1/thumb/v6-m/nofp\libgcc.a(_udivsi3.o)
 .ARM.attributes
                0x00000de0       0x1e c:/program files/microchip/xc32/v3.01/bin/bin/../../lib/gcc/pic32c/8.3.1/thumb/v6-m/nofp/crtn.o

.comment        0x00000000       0x53
 .comment       0x00000000       0x53 c:/program files/microchip/xc32/v3.01/bin/bin/../../lib/gcc/pic32c/8.3.1/thumb/v6-m/nofp/crtbegin.o
                                 0x54 (size before relaxing)
 .comment       0x00000053       0x54 build/default/production/_ext/869808652/drv_usart.o
 .comment       0x00000053       0x54 build/default/production/_ext/1529399856/osal_freertos.o
 .comment       0x00000053       0x54 build/default/production/_ext/1984496892/plib_clock.o
 .comment       0x00000053       0x54 build/default/production/_ext/1986646378/plib_evsys.o
 .comment       0x00000053       0x54 build/default/production/_ext/1865468468/plib_nvic.o
 .comment       0x00000053       0x54 build/default/production/_ext/1593096446/plib_nvmctrl.o
 .comment       0x00000053       0x54 build/default/production/_ext/1865521619/plib_port.o
 .comment       0x00000053       0x54 build/default/production/_ext/504274921/plib_sercom5_usart.o
 .comment       0x00000053       0x54 build/default/production/_ext/163028504/xc32_monitor.o
 .comment       0x00000053       0x54 build/default/production/_ext/14461671/sys_dma.o
 .comment       0x00000053       0x54 build/default/production/_ext/1171490990/initialization.o
 .comment       0x00000053       0x54 build/default/production/_ext/1171490990/interrupts.o
 .comment       0x00000053       0x54 build/default/production/_ext/1171490990/exceptions.o
 .comment       0x00000053       0x54 build/default/production/_ext/1171490990/startup_xc32.o
 .comment       0x00000053       0x54 build/default/production/_ext/1171490990/freertos_hooks.o
 .comment       0x00000053       0x54 build/default/production/_ext/1171490990/tasks.o
 .comment       0x00000053       0x54 build/default/production/_ext/1624415188/port.o
 .comment       0x00000053       0x54 build/default/production/_ext/1665200909/heap_1.o
 .comment       0x00000053       0x54 build/default/production/_ext/404212886/list.o
 .comment       0x00000053       0x54 build/default/production/_ext/404212886/queue.o
 .comment       0x00000053       0x54 build/default/production/_ext/404212886/FreeRTOS_tasks.o
 .comment       0x00000053       0x54 build/default/production/_ext/1360937237/main_d21.o
 .comment       0x00000053       0x54 build/default/production/_ext/1360937237/app1.o
 .comment       0x00000053       0x54 build/default/production/_ext/1360937237/app2.o
 .comment       0x00000053       0x54 build/default/production/_ext/1360937237/app3.o
 .comment       0x00000053       0x54 build/default/production/_ext/829342655/plib_tc5.o
 .comment       0x00000053       0x54 build/default/production/_ext/829342655/plib_tc4.o
 .comment       0x00000053       0x54 c:/program files/microchip/xc32/v3.01/bin/bin/../../lib/gcc/pic32c/8.3.1/../../../../pic32c/lib/thumb/v6-m/nofp\libpic32c.a(data_init.o)
 .comment       0x00000053       0x54 c:/program files/microchip/xc32/v3.01/bin/bin/../../lib/gcc/pic32c/8.3.1/thumb/v6-m/nofp\libgcc.a(_udivmoddi4.o)
 .comment       0x00000053       0x54 c:/program files/microchip/xc32/v3.01/bin/bin/../../lib/gcc/pic32c/8.3.1/../../../../pic32c/lib/thumb/v6-m/nofp\libc_nano.a(_lib_a-sprintf.cdnopuxX.o)
 .comment       0x00000053       0x54 c:/program files/microchip/xc32/v3.01/bin/bin/../../lib/gcc/pic32c/8.3.1/../../../../pic32c/lib/thumb/v6-m/nofp\libc_nano.a(lib_a-init.o)
 .comment       0x00000053       0x54 c:/program files/microchip/xc32/v3.01/bin/bin/../../lib/gcc/pic32c/8.3.1/../../../../pic32c/lib/thumb/v6-m/nofp\libc_nano.a(lib_a-memcpy-stub.o)
 .comment       0x00000053       0x54 c:/program files/microchip/xc32/v3.01/bin/bin/../../lib/gcc/pic32c/8.3.1/../../../../pic32c/lib/thumb/v6-m/nofp\libc_nano.a(lib_a-memset.o)
 .comment       0x00000053       0x54 c:/program files/microchip/xc32/v3.01/bin/bin/../../lib/gcc/pic32c/8.3.1/../../../../pic32c/lib/thumb/v6-m/nofp\libc_nano.a(_lib_a-nano-vfprintf.cdnopuxX.o)
 .comment       0x00000053       0x54 c:/program files/microchip/xc32/v3.01/bin/bin/../../lib/gcc/pic32c/8.3.1/../../../../pic32c/lib/thumb/v6-m/nofp\libc_nano.a(lib_a-__ssfputs.o)
 .comment       0x00000053       0x54 c:/program files/microchip/xc32/v3.01/bin/bin/../../lib/gcc/pic32c/8.3.1/../../../../pic32c/lib/thumb/v6-m/nofp\libc_nano.a(lib_a-findfp.o)
 .comment       0x00000053       0x54 c:/program files/microchip/xc32/v3.01/bin/bin/../../lib/gcc/pic32c/8.3.1/../../../../pic32c/lib/thumb/v6-m/nofp\libc_nano.a(lib_a-fputwc.o)
 .comment       0x00000053       0x54 c:/program files/microchip/xc32/v3.01/bin/bin/../../lib/gcc/pic32c/8.3.1/../../../../pic32c/lib/thumb/v6-m/nofp\libc_nano.a(lib_a-fwalk.o)
 .comment       0x00000053       0x54 c:/program files/microchip/xc32/v3.01/bin/bin/../../lib/gcc/pic32c/8.3.1/../../../../pic32c/lib/thumb/v6-m/nofp\libc_nano.a(lib_a-impure.o)
 .comment       0x00000053       0x54 c:/program files/microchip/xc32/v3.01/bin/bin/../../lib/gcc/pic32c/8.3.1/../../../../pic32c/lib/thumb/v6-m/nofp\libc_nano.a(lib_a-locale.o)
 .comment       0x00000053       0x54 c:/program files/microchip/xc32/v3.01/bin/bin/../../lib/gcc/pic32c/8.3.1/../../../../pic32c/lib/thumb/v6-m/nofp\libc_nano.a(lib_a-mbtowc_r.o)
 .comment       0x00000053       0x54 c:/program files/microchip/xc32/v3.01/bin/bin/../../lib/gcc/pic32c/8.3.1/../../../../pic32c/lib/thumb/v6-m/nofp\libc_nano.a(lib_a-memchr-stub.o)
 .comment       0x00000053       0x54 c:/program files/microchip/xc32/v3.01/bin/bin/../../lib/gcc/pic32c/8.3.1/../../../../pic32c/lib/thumb/v6-m/nofp\libc_nano.a(lib_a-nano-mallocr.o)
 .comment       0x00000053       0x54 c:/program files/microchip/xc32/v3.01/bin/bin/../../lib/gcc/pic32c/8.3.1/../../../../pic32c/lib/thumb/v6-m/nofp\libc_nano.a(lib_a-nano-vfprintf_i.o)
 .comment       0x00000053       0x54 c:/program files/microchip/xc32/v3.01/bin/bin/../../lib/gcc/pic32c/8.3.1/../../../../pic32c/lib/thumb/v6-m/nofp\libc_nano.a(lib_a-sbrkr.o)
 .comment       0x00000053       0x54 c:/program files/microchip/xc32/v3.01/bin/bin/../../lib/gcc/pic32c/8.3.1/../../../../pic32c/lib/thumb/v6-m/nofp\libc_nano.a(lib_a-stdio.o)
 .comment       0x00000053       0x54 c:/program files/microchip/xc32/v3.01/bin/bin/../../lib/gcc/pic32c/8.3.1/../../../../pic32c/lib/thumb/v6-m/nofp\libc_nano.a(lib_a-wbuf.o)
 .comment       0x00000053       0x54 c:/program files/microchip/xc32/v3.01/bin/bin/../../lib/gcc/pic32c/8.3.1/../../../../pic32c/lib/thumb/v6-m/nofp\libc_nano.a(lib_a-wcrtomb.o)
 .comment       0x00000053       0x54 c:/program files/microchip/xc32/v3.01/bin/bin/../../lib/gcc/pic32c/8.3.1/../../../../pic32c/lib/thumb/v6-m/nofp\libc_nano.a(lib_a-wctomb_r.o)
 .comment       0x00000053       0x54 c:/program files/microchip/xc32/v3.01/bin/bin/../../lib/gcc/pic32c/8.3.1/../../../../pic32c/lib/thumb/v6-m/nofp\libc_nano.a(lib_a-writer.o)
 .comment       0x00000053       0x54 c:/program files/microchip/xc32/v3.01/bin/bin/../../lib/gcc/pic32c/8.3.1/../../../../pic32c/lib/thumb/v6-m/nofp\libc_nano.a(lib_a-wsetup.o)
 .comment       0x00000053       0x54 c:/program files/microchip/xc32/v3.01/bin/bin/../../lib/gcc/pic32c/8.3.1/../../../../pic32c/lib/thumb/v6-m/nofp\libc_nano.a(lib_a-closer.o)
 .comment       0x00000053       0x54 c:/program files/microchip/xc32/v3.01/bin/bin/../../lib/gcc/pic32c/8.3.1/../../../../pic32c/lib/thumb/v6-m/nofp\libc_nano.a(lib_a-ctype_.o)
 .comment       0x00000053       0x54 c:/program files/microchip/xc32/v3.01/bin/bin/../../lib/gcc/pic32c/8.3.1/../../../../pic32c/lib/thumb/v6-m/nofp\libc_nano.a(lib_a-fflush.o)
 .comment       0x00000053       0x54 c:/program files/microchip/xc32/v3.01/bin/bin/../../lib/gcc/pic32c/8.3.1/../../../../pic32c/lib/thumb/v6-m/nofp\libc_nano.a(lib_a-lseekr.o)
 .comment       0x00000053       0x54 c:/program files/microchip/xc32/v3.01/bin/bin/../../lib/gcc/pic32c/8.3.1/../../../../pic32c/lib/thumb/v6-m/nofp\libc_nano.a(lib_a-makebuf.o)
 .comment       0x00000053       0x54 c:/program files/microchip/xc32/v3.01/bin/bin/../../lib/gcc/pic32c/8.3.1/../../../../pic32c/lib/thumb/v6-m/nofp\libc_nano.a(lib_a-mlock.o)
 .comment       0x00000053       0x54 c:/program files/microchip/xc32/v3.01/bin/bin/../../lib/gcc/pic32c/8.3.1/../../../../pic32c/lib/thumb/v6-m/nofp\libc_nano.a(lib_a-nano-freer.o)
 .comment       0x00000053       0x54 c:/program files/microchip/xc32/v3.01/bin/bin/../../lib/gcc/pic32c/8.3.1/../../../../pic32c/lib/thumb/v6-m/nofp\libc_nano.a(lib_a-readr.o)
 .comment       0x00000053       0x54 c:/program files/microchip/xc32/v3.01/bin/bin/../../lib/gcc/pic32c/8.3.1/../../../../pic32c/lib/thumb/v6-m/nofp\libc_nano.a(lib_a-reent.o)
 .comment       0x00000053       0x54 c:/program files/microchip/xc32/v3.01/bin/bin/../../lib/gcc/pic32c/8.3.1/../../../../pic32c/lib/thumb/v6-m/nofp\libc_nano.a(lib_a-fstatr.o)
 .comment       0x00000053       0x54 c:/program files/microchip/xc32/v3.01/bin/bin/../../lib/gcc/pic32c/8.3.1/../../../../pic32c/lib/thumb/v6-m/nofp\libc_nano.a(lib_a-isattyr.o)
 .comment       0x00000053       0x54 c:/program files/microchip/xc32/v3.01/bin/bin/../../lib/gcc/pic32c/8.3.1/../../../../pic32c/lib/thumb/v6-m/nofp\libpic32c.a(_close.o)
 .comment       0x00000053       0x54 c:/program files/microchip/xc32/v3.01/bin/bin/../../lib/gcc/pic32c/8.3.1/../../../../pic32c/lib/thumb/v6-m/nofp\libpic32c.a(_fstat.o)
 .comment       0x00000053       0x54 c:/program files/microchip/xc32/v3.01/bin/bin/../../lib/gcc/pic32c/8.3.1/../../../../pic32c/lib/thumb/v6-m/nofp\libpic32c.a(_isatty.o)
 .comment       0x00000053       0x54 c:/program files/microchip/xc32/v3.01/bin/bin/../../lib/gcc/pic32c/8.3.1/../../../../pic32c/lib/thumb/v6-m/nofp\libpic32c.a(_lseek.o)
 .comment       0x00000053       0x54 c:/program files/microchip/xc32/v3.01/bin/bin/../../lib/gcc/pic32c/8.3.1/../../../../pic32c/lib/thumb/v6-m/nofp\libpic32c.a(_read.o)
 .comment       0x00000053       0x54 c:/program files/microchip/xc32/v3.01/bin/bin/../../lib/gcc/pic32c/8.3.1/../../../../pic32c/lib/thumb/v6-m/nofp\libpic32c.a(sbrk.o)
 .comment       0x00000053       0x54 c:/program files/microchip/xc32/v3.01/bin/bin/../../lib/gcc/pic32c/8.3.1/../../../../pic32c/lib/thumb/v6-m/nofp\libpic32c.a(_write.o)
 .comment       0x00000053       0x54 c:/program files/microchip/xc32/v3.01/bin/bin/../../lib/gcc/pic32c/8.3.1/../../../../pic32c/lib/thumb/v6-m/nofp\libpic32c.a(close.o)
 .comment       0x00000053       0x54 c:/program files/microchip/xc32/v3.01/bin/bin/../../lib/gcc/pic32c/8.3.1/../../../../pic32c/lib/thumb/v6-m/nofp\libpic32c.a(fstat.o)
 .comment       0x00000053       0x54 c:/program files/microchip/xc32/v3.01/bin/bin/../../lib/gcc/pic32c/8.3.1/../../../../pic32c/lib/thumb/v6-m/nofp\libpic32c.a(isatty.o)
 .comment       0x00000053       0x54 c:/program files/microchip/xc32/v3.01/bin/bin/../../lib/gcc/pic32c/8.3.1/../../../../pic32c/lib/thumb/v6-m/nofp\libpic32c.a(lseek.o)
 .comment       0x00000053       0x54 c:/program files/microchip/xc32/v3.01/bin/bin/../../lib/gcc/pic32c/8.3.1/../../../../pic32c/lib/thumb/v6-m/nofp\libpic32c.a(read.o)
 .comment       0x00000053       0x54 c:/program files/microchip/xc32/v3.01/bin/bin/../../lib/gcc/pic32c/8.3.1/../../../../pic32c/lib/thumb/v6-m/nofp\libpic32c.a(write.o)

.debug_info     0x00000000    0x22e3d
 .debug_info    0x00000000     0x1f36 build/default/production/_ext/869808652/drv_usart.o
 .debug_info    0x00001f36      0xc0d build/default/production/_ext/1529399856/osal_freertos.o
 .debug_info    0x00002b43      0xaac build/default/production/_ext/1984496892/plib_clock.o
 .debug_info    0x000035ef      0x35b build/default/production/_ext/1986646378/plib_evsys.o
 .debug_info    0x0000394a      0xb0c build/default/production/_ext/1865468468/plib_nvic.o
 .debug_info    0x00004456     0x13e3 build/default/production/_ext/1593096446/plib_nvmctrl.o
 .debug_info    0x00005839      0xce4 build/default/production/_ext/1865521619/plib_port.o
 .debug_info    0x0000651d     0x18b4 build/default/production/_ext/504274921/plib_sercom5_usart.o
 .debug_info    0x00007dd1      0x2ec build/default/production/_ext/163028504/xc32_monitor.o
 .debug_info    0x000080bd      0x712 build/default/production/_ext/14461671/sys_dma.o
 .debug_info    0x000087cf     0x23df build/default/production/_ext/1171490990/initialization.o
 .debug_info    0x0000abae     0x15c3 build/default/production/_ext/1171490990/interrupts.o
 .debug_info    0x0000c171     0x108b build/default/production/_ext/1171490990/exceptions.o
 .debug_info    0x0000d1fc      0x501 build/default/production/_ext/1171490990/startup_xc32.o
 .debug_info    0x0000d6fd      0x4da build/default/production/_ext/1171490990/freertos_hooks.o
 .debug_info    0x0000dbd7     0x12c3 build/default/production/_ext/1171490990/tasks.o
 .debug_info    0x0000ee9a      0x744 build/default/production/_ext/1624415188/port.o
 .debug_info    0x0000f5de     0x1119 build/default/production/_ext/1665200909/heap_1.o
 .debug_info    0x000106f7     0x123c build/default/production/_ext/404212886/list.o
 .debug_info    0x00011933     0x2c6d build/default/production/_ext/404212886/queue.o
 .debug_info    0x000145a0     0x38de build/default/production/_ext/404212886/FreeRTOS_tasks.o
 .debug_info    0x00017e7e     0x1084 build/default/production/_ext/1360937237/main_d21.o
 .debug_info    0x00018f02     0x17c7 build/default/production/_ext/1360937237/app1.o
 .debug_info    0x0001a6c9     0x178f build/default/production/_ext/1360937237/app2.o
 .debug_info    0x0001be58     0x1322 build/default/production/_ext/1360937237/app3.o
 .debug_info    0x0001d17a      0xd51 build/default/production/_ext/829342655/plib_tc5.o
 .debug_info    0x0001decb      0xd51 build/default/production/_ext/829342655/plib_tc4.o
 .debug_info    0x0001ec1c      0x2c3 c:/program files/microchip/xc32/v3.01/bin/bin/../../lib/gcc/pic32c/8.3.1/../../../../pic32c/lib/thumb/v6-m/nofp\libpic32c.a(data_init.o)
 .debug_info    0x0001eedf       0x26 c:/program files/microchip/xc32/v3.01/bin/bin/../../lib/gcc/pic32c/8.3.1/thumb/v6-m/nofp\libgcc.a(_aeabi_uldivmod.o)
 .debug_info    0x0001ef05     0x1c12 c:/program files/microchip/xc32/v3.01/bin/bin/../../lib/gcc/pic32c/8.3.1/thumb/v6-m/nofp\libgcc.a(_udivmoddi4.o)
 .debug_info    0x00020b17       0x26 c:/program files/microchip/xc32/v3.01/bin/bin/../../lib/gcc/pic32c/8.3.1/thumb/v6-m/nofp\libgcc.a(_dvmd_tls.o)
 .debug_info    0x00020b3d       0x26 c:/program files/microchip/xc32/v3.01/bin/bin/../../lib/gcc/pic32c/8.3.1/thumb/v6-m/nofp\libgcc.a(_clzdi2.o)
 .debug_info    0x00020b63       0x26 c:/program files/microchip/xc32/v3.01/bin/bin/../../lib/gcc/pic32c/8.3.1/thumb/v6-m/nofp\libgcc.a(_clzsi2.o)
 .debug_info    0x00020b89      0x2aa c:/program files/microchip/xc32/v3.01/bin/bin/../../lib/gcc/pic32c/8.3.1/../../../../pic32c/lib/thumb/v6-m/nofp\libpic32c.a(_close.o)
 .debug_info    0x00020e33      0x2aa c:/program files/microchip/xc32/v3.01/bin/bin/../../lib/gcc/pic32c/8.3.1/../../../../pic32c/lib/thumb/v6-m/nofp\libpic32c.a(_fstat.o)
 .debug_info    0x000210dd      0x2ac c:/program files/microchip/xc32/v3.01/bin/bin/../../lib/gcc/pic32c/8.3.1/../../../../pic32c/lib/thumb/v6-m/nofp\libpic32c.a(_isatty.o)
 .debug_info    0x00021389      0x2aa c:/program files/microchip/xc32/v3.01/bin/bin/../../lib/gcc/pic32c/8.3.1/../../../../pic32c/lib/thumb/v6-m/nofp\libpic32c.a(_lseek.o)
 .debug_info    0x00021633      0x2a8 c:/program files/microchip/xc32/v3.01/bin/bin/../../lib/gcc/pic32c/8.3.1/../../../../pic32c/lib/thumb/v6-m/nofp\libpic32c.a(_read.o)
 .debug_info    0x000218db      0x2a6 c:/program files/microchip/xc32/v3.01/bin/bin/../../lib/gcc/pic32c/8.3.1/../../../../pic32c/lib/thumb/v6-m/nofp\libpic32c.a(sbrk.o)
 .debug_info    0x00021b81      0x2aa c:/program files/microchip/xc32/v3.01/bin/bin/../../lib/gcc/pic32c/8.3.1/../../../../pic32c/lib/thumb/v6-m/nofp\libpic32c.a(_write.o)
 .debug_info    0x00021e2b      0x2a7 c:/program files/microchip/xc32/v3.01/bin/bin/../../lib/gcc/pic32c/8.3.1/../../../../pic32c/lib/thumb/v6-m/nofp\libpic32c.a(close.o)
 .debug_info    0x000220d2      0x2a7 c:/program files/microchip/xc32/v3.01/bin/bin/../../lib/gcc/pic32c/8.3.1/../../../../pic32c/lib/thumb/v6-m/nofp\libpic32c.a(fstat.o)
 .debug_info    0x00022379      0x2a9 c:/program files/microchip/xc32/v3.01/bin/bin/../../lib/gcc/pic32c/8.3.1/../../../../pic32c/lib/thumb/v6-m/nofp\libpic32c.a(isatty.o)
 .debug_info    0x00022622      0x2a7 c:/program files/microchip/xc32/v3.01/bin/bin/../../lib/gcc/pic32c/8.3.1/../../../../pic32c/lib/thumb/v6-m/nofp\libpic32c.a(lseek.o)
 .debug_info    0x000228c9      0x2a6 c:/program files/microchip/xc32/v3.01/bin/bin/../../lib/gcc/pic32c/8.3.1/../../../../pic32c/lib/thumb/v6-m/nofp\libpic32c.a(read.o)
 .debug_info    0x00022b6f      0x2a8 c:/program files/microchip/xc32/v3.01/bin/bin/../../lib/gcc/pic32c/8.3.1/../../../../pic32c/lib/thumb/v6-m/nofp\libpic32c.a(write.o)
 .debug_info    0x00022e17       0x26 c:/program files/microchip/xc32/v3.01/bin/bin/../../lib/gcc/pic32c/8.3.1/thumb/v6-m/nofp\libgcc.a(_udivsi3.o)

.debug_abbrev   0x00000000     0x3ef8
 .debug_abbrev  0x00000000      0x40c build/default/production/_ext/869808652/drv_usart.o
 .debug_abbrev  0x0000040c      0x1ea build/default/production/_ext/1529399856/osal_freertos.o
 .debug_abbrev  0x000005f6      0x13e build/default/production/_ext/1984496892/plib_clock.o
 .debug_abbrev  0x00000734       0x3b build/default/production/_ext/1986646378/plib_evsys.o
 .debug_abbrev  0x0000076f      0x1f2 build/default/production/_ext/1865468468/plib_nvic.o
 .debug_abbrev  0x00000961      0x2a7 build/default/production/_ext/1593096446/plib_nvmctrl.o
 .debug_abbrev  0x00000c08      0x1d6 build/default/production/_ext/1865521619/plib_port.o
 .debug_abbrev  0x00000dde      0x37f build/default/production/_ext/504274921/plib_sercom5_usart.o
 .debug_abbrev  0x0000115d       0x80 build/default/production/_ext/163028504/xc32_monitor.o
 .debug_abbrev  0x000011dd       0xa5 build/default/production/_ext/14461671/sys_dma.o
 .debug_abbrev  0x00001282      0x2d4 build/default/production/_ext/1171490990/initialization.o
 .debug_abbrev  0x00001556      0x1e1 build/default/production/_ext/1171490990/interrupts.o
 .debug_abbrev  0x00001737      0x1d4 build/default/production/_ext/1171490990/exceptions.o
 .debug_abbrev  0x0000190b      0x11f build/default/production/_ext/1171490990/startup_xc32.o
 .debug_abbrev  0x00001a2a       0xf7 build/default/production/_ext/1171490990/freertos_hooks.o
 .debug_abbrev  0x00001b21      0x246 build/default/production/_ext/1171490990/tasks.o
 .debug_abbrev  0x00001d67      0x1c0 build/default/production/_ext/1624415188/port.o
 .debug_abbrev  0x00001f27      0x2af build/default/production/_ext/1665200909/heap_1.o
 .debug_abbrev  0x000021d6      0x270 build/default/production/_ext/404212886/list.o
 .debug_abbrev  0x00002446      0x421 build/default/production/_ext/404212886/queue.o
 .debug_abbrev  0x00002867      0x4e4 build/default/production/_ext/404212886/FreeRTOS_tasks.o
 .debug_abbrev  0x00002d4b      0x20d build/default/production/_ext/1360937237/main_d21.o
 .debug_abbrev  0x00002f58      0x2c0 build/default/production/_ext/1360937237/app1.o
 .debug_abbrev  0x00003218      0x2a3 build/default/production/_ext/1360937237/app2.o
 .debug_abbrev  0x000034bb      0x22e build/default/production/_ext/1360937237/app3.o
 .debug_abbrev  0x000036e9      0x1e8 build/default/production/_ext/829342655/plib_tc5.o
 .debug_abbrev  0x000038d1      0x1e8 build/default/production/_ext/829342655/plib_tc4.o
 .debug_abbrev  0x00003ab9       0x2e c:/program files/microchip/xc32/v3.01/bin/bin/../../lib/gcc/pic32c/8.3.1/../../../../pic32c/lib/thumb/v6-m/nofp\libpic32c.a(data_init.o)
 .debug_abbrev  0x00003ae7       0x14 c:/program files/microchip/xc32/v3.01/bin/bin/../../lib/gcc/pic32c/8.3.1/thumb/v6-m/nofp\libgcc.a(_aeabi_uldivmod.o)
 .debug_abbrev  0x00003afb      0x157 c:/program files/microchip/xc32/v3.01/bin/bin/../../lib/gcc/pic32c/8.3.1/thumb/v6-m/nofp\libgcc.a(_udivmoddi4.o)
 .debug_abbrev  0x00003c52       0x14 c:/program files/microchip/xc32/v3.01/bin/bin/../../lib/gcc/pic32c/8.3.1/thumb/v6-m/nofp\libgcc.a(_dvmd_tls.o)
 .debug_abbrev  0x00003c66       0x14 c:/program files/microchip/xc32/v3.01/bin/bin/../../lib/gcc/pic32c/8.3.1/thumb/v6-m/nofp\libgcc.a(_clzdi2.o)
 .debug_abbrev  0x00003c7a       0x14 c:/program files/microchip/xc32/v3.01/bin/bin/../../lib/gcc/pic32c/8.3.1/thumb/v6-m/nofp\libgcc.a(_clzsi2.o)
 .debug_abbrev  0x00003c8e       0x2e c:/program files/microchip/xc32/v3.01/bin/bin/../../lib/gcc/pic32c/8.3.1/../../../../pic32c/lib/thumb/v6-m/nofp\libpic32c.a(_close.o)
 .debug_abbrev  0x00003cbc       0x2e c:/program files/microchip/xc32/v3.01/bin/bin/../../lib/gcc/pic32c/8.3.1/../../../../pic32c/lib/thumb/v6-m/nofp\libpic32c.a(_fstat.o)
 .debug_abbrev  0x00003cea       0x2e c:/program files/microchip/xc32/v3.01/bin/bin/../../lib/gcc/pic32c/8.3.1/../../../../pic32c/lib/thumb/v6-m/nofp\libpic32c.a(_isatty.o)
 .debug_abbrev  0x00003d18       0x2e c:/program files/microchip/xc32/v3.01/bin/bin/../../lib/gcc/pic32c/8.3.1/../../../../pic32c/lib/thumb/v6-m/nofp\libpic32c.a(_lseek.o)
 .debug_abbrev  0x00003d46       0x2e c:/program files/microchip/xc32/v3.01/bin/bin/../../lib/gcc/pic32c/8.3.1/../../../../pic32c/lib/thumb/v6-m/nofp\libpic32c.a(_read.o)
 .debug_abbrev  0x00003d74       0x2e c:/program files/microchip/xc32/v3.01/bin/bin/../../lib/gcc/pic32c/8.3.1/../../../../pic32c/lib/thumb/v6-m/nofp\libpic32c.a(sbrk.o)
 .debug_abbrev  0x00003da2       0x2e c:/program files/microchip/xc32/v3.01/bin/bin/../../lib/gcc/pic32c/8.3.1/../../../../pic32c/lib/thumb/v6-m/nofp\libpic32c.a(_write.o)
 .debug_abbrev  0x00003dd0       0x2e c:/program files/microchip/xc32/v3.01/bin/bin/../../lib/gcc/pic32c/8.3.1/../../../../pic32c/lib/thumb/v6-m/nofp\libpic32c.a(close.o)
 .debug_abbrev  0x00003dfe       0x2e c:/program files/microchip/xc32/v3.01/bin/bin/../../lib/gcc/pic32c/8.3.1/../../../../pic32c/lib/thumb/v6-m/nofp\libpic32c.a(fstat.o)
 .debug_abbrev  0x00003e2c       0x2e c:/program files/microchip/xc32/v3.01/bin/bin/../../lib/gcc/pic32c/8.3.1/../../../../pic32c/lib/thumb/v6-m/nofp\libpic32c.a(isatty.o)
 .debug_abbrev  0x00003e5a       0x2e c:/program files/microchip/xc32/v3.01/bin/bin/../../lib/gcc/pic32c/8.3.1/../../../../pic32c/lib/thumb/v6-m/nofp\libpic32c.a(lseek.o)
 .debug_abbrev  0x00003e88       0x2e c:/program files/microchip/xc32/v3.01/bin/bin/../../lib/gcc/pic32c/8.3.1/../../../../pic32c/lib/thumb/v6-m/nofp\libpic32c.a(read.o)
 .debug_abbrev  0x00003eb6       0x2e c:/program files/microchip/xc32/v3.01/bin/bin/../../lib/gcc/pic32c/8.3.1/../../../../pic32c/lib/thumb/v6-m/nofp\libpic32c.a(write.o)
 .debug_abbrev  0x00003ee4       0x14 c:/program files/microchip/xc32/v3.01/bin/bin/../../lib/gcc/pic32c/8.3.1/thumb/v6-m/nofp\libgcc.a(_udivsi3.o)

.debug_loc      0x00000000     0x659a
 .debug_loc     0x00000000      0xd77 build/default/production/_ext/869808652/drv_usart.o
 .debug_loc     0x00000d77      0x70a build/default/production/_ext/1529399856/osal_freertos.o
 .debug_loc     0x00001481       0x8e build/default/production/_ext/1984496892/plib_clock.o
 .debug_loc     0x0000150f       0xf4 build/default/production/_ext/1865468468/plib_nvic.o
 .debug_loc     0x00001603      0x228 build/default/production/_ext/1593096446/plib_nvmctrl.o
 .debug_loc     0x0000182b      0x226 build/default/production/_ext/1865521619/plib_port.o
 .debug_loc     0x00001a51      0x6ba build/default/production/_ext/504274921/plib_sercom5_usart.o
 .debug_loc     0x0000210b       0x25 build/default/production/_ext/163028504/xc32_monitor.o
 .debug_loc     0x00002130       0x45 build/default/production/_ext/1171490990/initialization.o
 .debug_loc     0x00002175       0x20 build/default/production/_ext/1171490990/startup_xc32.o
 .debug_loc     0x00002195       0x76 build/default/production/_ext/1171490990/freertos_hooks.o
 .debug_loc     0x0000220b       0xfb build/default/production/_ext/1171490990/tasks.o
 .debug_loc     0x00002306      0x14d build/default/production/_ext/1624415188/port.o
 .debug_loc     0x00002453       0x80 build/default/production/_ext/1665200909/heap_1.o
 .debug_loc     0x000024d3       0xa6 build/default/production/_ext/404212886/list.o
 .debug_loc     0x00002579     0x18f0 build/default/production/_ext/404212886/queue.o
 .debug_loc     0x00003e69     0x1fb9 build/default/production/_ext/404212886/FreeRTOS_tasks.o
 .debug_loc     0x00005e22       0x20 build/default/production/_ext/1360937237/main_d21.o
 .debug_loc     0x00005e42       0xc4 build/default/production/_ext/1360937237/app1.o
 .debug_loc     0x00005f06       0xe6 build/default/production/_ext/1360937237/app2.o
 .debug_loc     0x00005fec       0x20 build/default/production/_ext/1360937237/app3.o
 .debug_loc     0x0000600c       0x5f build/default/production/_ext/829342655/plib_tc5.o
 .debug_loc     0x0000606b       0x5f build/default/production/_ext/829342655/plib_tc4.o
 .debug_loc     0x000060ca       0x14 c:/program files/microchip/xc32/v3.01/bin/bin/../../lib/gcc/pic32c/8.3.1/../../../../pic32c/lib/thumb/v6-m/nofp\libpic32c.a(data_init.o)
 .debug_loc     0x000060de      0x41c c:/program files/microchip/xc32/v3.01/bin/bin/../../lib/gcc/pic32c/8.3.1/thumb/v6-m/nofp\libgcc.a(_udivmoddi4.o)
 .debug_loc     0x000064fa       0x14 c:/program files/microchip/xc32/v3.01/bin/bin/../../lib/gcc/pic32c/8.3.1/../../../../pic32c/lib/thumb/v6-m/nofp\libpic32c.a(_close.o)
 .debug_loc     0x0000650e       0x14 c:/program files/microchip/xc32/v3.01/bin/bin/../../lib/gcc/pic32c/8.3.1/../../../../pic32c/lib/thumb/v6-m/nofp\libpic32c.a(_fstat.o)
 .debug_loc     0x00006522       0x14 c:/program files/microchip/xc32/v3.01/bin/bin/../../lib/gcc/pic32c/8.3.1/../../../../pic32c/lib/thumb/v6-m/nofp\libpic32c.a(_isatty.o)
 .debug_loc     0x00006536       0x14 c:/program files/microchip/xc32/v3.01/bin/bin/../../lib/gcc/pic32c/8.3.1/../../../../pic32c/lib/thumb/v6-m/nofp\libpic32c.a(_lseek.o)
 .debug_loc     0x0000654a       0x14 c:/program files/microchip/xc32/v3.01/bin/bin/../../lib/gcc/pic32c/8.3.1/../../../../pic32c/lib/thumb/v6-m/nofp\libpic32c.a(_read.o)
 .debug_loc     0x0000655e       0x14 c:/program files/microchip/xc32/v3.01/bin/bin/../../lib/gcc/pic32c/8.3.1/../../../../pic32c/lib/thumb/v6-m/nofp\libpic32c.a(_write.o)
 .debug_loc     0x00006572       0x14 c:/program files/microchip/xc32/v3.01/bin/bin/../../lib/gcc/pic32c/8.3.1/../../../../pic32c/lib/thumb/v6-m/nofp\libpic32c.a(read.o)
 .debug_loc     0x00006586       0x14 c:/program files/microchip/xc32/v3.01/bin/bin/../../lib/gcc/pic32c/8.3.1/../../../../pic32c/lib/thumb/v6-m/nofp\libpic32c.a(write.o)

.debug_aranges  0x00000000      0xbb8
 .debug_aranges
                0x00000000       0x70 build/default/production/_ext/869808652/drv_usart.o
 .debug_aranges
                0x00000070       0x90 build/default/production/_ext/1529399856/osal_freertos.o
 .debug_aranges
                0x00000100       0x20 build/default/production/_ext/1984496892/plib_clock.o
 .debug_aranges
                0x00000120       0x20 build/default/production/_ext/1986646378/plib_evsys.o
 .debug_aranges
                0x00000140       0x38 build/default/production/_ext/1865468468/plib_nvic.o
 .debug_aranges
                0x00000178       0x60 build/default/production/_ext/1593096446/plib_nvmctrl.o
 .debug_aranges
                0x000001d8       0x70 build/default/production/_ext/1865521619/plib_port.o
 .debug_aranges
                0x00000248       0xb0 build/default/production/_ext/504274921/plib_sercom5_usart.o
 .debug_aranges
                0x000002f8       0x28 build/default/production/_ext/163028504/xc32_monitor.o
 .debug_aranges
                0x00000320       0x28 build/default/production/_ext/14461671/sys_dma.o
 .debug_aranges
                0x00000348       0x20 build/default/production/_ext/1171490990/initialization.o
 .debug_aranges
                0x00000368       0x20 build/default/production/_ext/1171490990/interrupts.o
 .debug_aranges
                0x00000388       0x28 build/default/production/_ext/1171490990/exceptions.o
 .debug_aranges
                0x000003b0       0x28 build/default/production/_ext/1171490990/startup_xc32.o
 .debug_aranges
                0x000003d8       0x40 build/default/production/_ext/1171490990/freertos_hooks.o
 .debug_aranges
                0x00000418       0x38 build/default/production/_ext/1171490990/tasks.o
 .debug_aranges
                0x00000450       0x88 build/default/production/_ext/1624415188/port.o
 .debug_aranges
                0x000004d8       0x38 build/default/production/_ext/1665200909/heap_1.o
 .debug_aranges
                0x00000510       0x40 build/default/production/_ext/404212886/list.o
 .debug_aranges
                0x00000550       0xc8 build/default/production/_ext/404212886/queue.o
 .debug_aranges
                0x00000618      0x178 build/default/production/_ext/404212886/FreeRTOS_tasks.o
 .debug_aranges
                0x00000790       0x20 build/default/production/_ext/1360937237/main_d21.o
 .debug_aranges
                0x000007b0       0x30 build/default/production/_ext/1360937237/app1.o
 .debug_aranges
                0x000007e0       0x30 build/default/production/_ext/1360937237/app2.o
 .debug_aranges
                0x00000810       0x28 build/default/production/_ext/1360937237/app3.o
 .debug_aranges
                0x00000838       0x80 build/default/production/_ext/829342655/plib_tc5.o
 .debug_aranges
                0x000008b8       0x80 build/default/production/_ext/829342655/plib_tc4.o
 .debug_aranges
                0x00000938       0x20 c:/program files/microchip/xc32/v3.01/bin/bin/../../lib/gcc/pic32c/8.3.1/../../../../pic32c/lib/thumb/v6-m/nofp\libpic32c.a(data_init.o)
 .debug_aranges
                0x00000958       0x20 c:/program files/microchip/xc32/v3.01/bin/bin/../../lib/gcc/pic32c/8.3.1/thumb/v6-m/nofp\libgcc.a(_aeabi_uldivmod.o)
 .debug_aranges
                0x00000978       0x20 c:/program files/microchip/xc32/v3.01/bin/bin/../../lib/gcc/pic32c/8.3.1/thumb/v6-m/nofp\libgcc.a(_udivmoddi4.o)
 .debug_aranges
                0x00000998       0x20 c:/program files/microchip/xc32/v3.01/bin/bin/../../lib/gcc/pic32c/8.3.1/thumb/v6-m/nofp\libgcc.a(_dvmd_tls.o)
 .debug_aranges
                0x000009b8       0x20 c:/program files/microchip/xc32/v3.01/bin/bin/../../lib/gcc/pic32c/8.3.1/thumb/v6-m/nofp\libgcc.a(_clzdi2.o)
 .debug_aranges
                0x000009d8       0x20 c:/program files/microchip/xc32/v3.01/bin/bin/../../lib/gcc/pic32c/8.3.1/thumb/v6-m/nofp\libgcc.a(_clzsi2.o)
 .debug_aranges
                0x000009f8       0x20 c:/program files/microchip/xc32/v3.01/bin/bin/../../lib/gcc/pic32c/8.3.1/../../../../pic32c/lib/thumb/v6-m/nofp\libpic32c.a(_close.o)
 .debug_aranges
                0x00000a18       0x20 c:/program files/microchip/xc32/v3.01/bin/bin/../../lib/gcc/pic32c/8.3.1/../../../../pic32c/lib/thumb/v6-m/nofp\libpic32c.a(_fstat.o)
 .debug_aranges
                0x00000a38       0x20 c:/program files/microchip/xc32/v3.01/bin/bin/../../lib/gcc/pic32c/8.3.1/../../../../pic32c/lib/thumb/v6-m/nofp\libpic32c.a(_isatty.o)
 .debug_aranges
                0x00000a58       0x20 c:/program files/microchip/xc32/v3.01/bin/bin/../../lib/gcc/pic32c/8.3.1/../../../../pic32c/lib/thumb/v6-m/nofp\libpic32c.a(_lseek.o)
 .debug_aranges
                0x00000a78       0x20 c:/program files/microchip/xc32/v3.01/bin/bin/../../lib/gcc/pic32c/8.3.1/../../../../pic32c/lib/thumb/v6-m/nofp\libpic32c.a(_read.o)
 .debug_aranges
                0x00000a98       0x20 c:/program files/microchip/xc32/v3.01/bin/bin/../../lib/gcc/pic32c/8.3.1/../../../../pic32c/lib/thumb/v6-m/nofp\libpic32c.a(sbrk.o)
 .debug_aranges
                0x00000ab8       0x20 c:/program files/microchip/xc32/v3.01/bin/bin/../../lib/gcc/pic32c/8.3.1/../../../../pic32c/lib/thumb/v6-m/nofp\libpic32c.a(_write.o)
 .debug_aranges
                0x00000ad8       0x20 c:/program files/microchip/xc32/v3.01/bin/bin/../../lib/gcc/pic32c/8.3.1/../../../../pic32c/lib/thumb/v6-m/nofp\libpic32c.a(close.o)
 .debug_aranges
                0x00000af8       0x20 c:/program files/microchip/xc32/v3.01/bin/bin/../../lib/gcc/pic32c/8.3.1/../../../../pic32c/lib/thumb/v6-m/nofp\libpic32c.a(fstat.o)
 .debug_aranges
                0x00000b18       0x20 c:/program files/microchip/xc32/v3.01/bin/bin/../../lib/gcc/pic32c/8.3.1/../../../../pic32c/lib/thumb/v6-m/nofp\libpic32c.a(isatty.o)
 .debug_aranges
                0x00000b38       0x20 c:/program files/microchip/xc32/v3.01/bin/bin/../../lib/gcc/pic32c/8.3.1/../../../../pic32c/lib/thumb/v6-m/nofp\libpic32c.a(lseek.o)
 .debug_aranges
                0x00000b58       0x20 c:/program files/microchip/xc32/v3.01/bin/bin/../../lib/gcc/pic32c/8.3.1/../../../../pic32c/lib/thumb/v6-m/nofp\libpic32c.a(read.o)
 .debug_aranges
                0x00000b78       0x20 c:/program files/microchip/xc32/v3.01/bin/bin/../../lib/gcc/pic32c/8.3.1/../../../../pic32c/lib/thumb/v6-m/nofp\libpic32c.a(write.o)
 .debug_aranges
                0x00000b98       0x20 c:/program files/microchip/xc32/v3.01/bin/bin/../../lib/gcc/pic32c/8.3.1/thumb/v6-m/nofp\libgcc.a(_udivsi3.o)

.debug_ranges   0x00000000      0xad8
 .debug_ranges  0x00000000       0x90 build/default/production/_ext/869808652/drv_usart.o
 .debug_ranges  0x00000090       0x80 build/default/production/_ext/1529399856/osal_freertos.o
 .debug_ranges  0x00000110       0x28 build/default/production/_ext/1984496892/plib_clock.o
 .debug_ranges  0x00000138       0x10 build/default/production/_ext/1986646378/plib_evsys.o
 .debug_ranges  0x00000148       0x28 build/default/production/_ext/1865468468/plib_nvic.o
 .debug_ranges  0x00000170       0x50 build/default/production/_ext/1593096446/plib_nvmctrl.o
 .debug_ranges  0x000001c0       0x60 build/default/production/_ext/1865521619/plib_port.o
 .debug_ranges  0x00000220       0xd0 build/default/production/_ext/504274921/plib_sercom5_usart.o
 .debug_ranges  0x000002f0       0x18 build/default/production/_ext/163028504/xc32_monitor.o
 .debug_ranges  0x00000308       0x18 build/default/production/_ext/14461671/sys_dma.o
 .debug_ranges  0x00000320       0x10 build/default/production/_ext/1171490990/initialization.o
 .debug_ranges  0x00000330       0x10 build/default/production/_ext/1171490990/interrupts.o
 .debug_ranges  0x00000340       0x18 build/default/production/_ext/1171490990/exceptions.o
 .debug_ranges  0x00000358       0x18 build/default/production/_ext/1171490990/startup_xc32.o
 .debug_ranges  0x00000370       0x30 build/default/production/_ext/1171490990/freertos_hooks.o
 .debug_ranges  0x000003a0       0x28 build/default/production/_ext/1171490990/tasks.o
 .debug_ranges  0x000003c8       0x78 build/default/production/_ext/1624415188/port.o
 .debug_ranges  0x00000440       0x28 build/default/production/_ext/1665200909/heap_1.o
 .debug_ranges  0x00000468       0x30 build/default/production/_ext/404212886/list.o
 .debug_ranges  0x00000498      0x1a8 build/default/production/_ext/404212886/queue.o
 .debug_ranges  0x00000640      0x270 build/default/production/_ext/404212886/FreeRTOS_tasks.o
 .debug_ranges  0x000008b0       0x10 build/default/production/_ext/1360937237/main_d21.o
 .debug_ranges  0x000008c0       0x20 build/default/production/_ext/1360937237/app1.o
 .debug_ranges  0x000008e0       0x20 build/default/production/_ext/1360937237/app2.o
 .debug_ranges  0x00000900       0x18 build/default/production/_ext/1360937237/app3.o
 .debug_ranges  0x00000918       0x70 build/default/production/_ext/829342655/plib_tc5.o
 .debug_ranges  0x00000988       0x70 build/default/production/_ext/829342655/plib_tc4.o
 .debug_ranges  0x000009f8       0x10 c:/program files/microchip/xc32/v3.01/bin/bin/../../lib/gcc/pic32c/8.3.1/../../../../pic32c/lib/thumb/v6-m/nofp\libpic32c.a(data_init.o)
 .debug_ranges  0x00000a08       0x10 c:/program files/microchip/xc32/v3.01/bin/bin/../../lib/gcc/pic32c/8.3.1/../../../../pic32c/lib/thumb/v6-m/nofp\libpic32c.a(_close.o)
 .debug_ranges  0x00000a18       0x10 c:/program files/microchip/xc32/v3.01/bin/bin/../../lib/gcc/pic32c/8.3.1/../../../../pic32c/lib/thumb/v6-m/nofp\libpic32c.a(_fstat.o)
 .debug_ranges  0x00000a28       0x10 c:/program files/microchip/xc32/v3.01/bin/bin/../../lib/gcc/pic32c/8.3.1/../../../../pic32c/lib/thumb/v6-m/nofp\libpic32c.a(_isatty.o)
 .debug_ranges  0x00000a38       0x10 c:/program files/microchip/xc32/v3.01/bin/bin/../../lib/gcc/pic32c/8.3.1/../../../../pic32c/lib/thumb/v6-m/nofp\libpic32c.a(_lseek.o)
 .debug_ranges  0x00000a48       0x10 c:/program files/microchip/xc32/v3.01/bin/bin/../../lib/gcc/pic32c/8.3.1/../../../../pic32c/lib/thumb/v6-m/nofp\libpic32c.a(_read.o)
 .debug_ranges  0x00000a58       0x10 c:/program files/microchip/xc32/v3.01/bin/bin/../../lib/gcc/pic32c/8.3.1/../../../../pic32c/lib/thumb/v6-m/nofp\libpic32c.a(sbrk.o)
 .debug_ranges  0x00000a68       0x10 c:/program files/microchip/xc32/v3.01/bin/bin/../../lib/gcc/pic32c/8.3.1/../../../../pic32c/lib/thumb/v6-m/nofp\libpic32c.a(_write.o)
 .debug_ranges  0x00000a78       0x10 c:/program files/microchip/xc32/v3.01/bin/bin/../../lib/gcc/pic32c/8.3.1/../../../../pic32c/lib/thumb/v6-m/nofp\libpic32c.a(close.o)
 .debug_ranges  0x00000a88       0x10 c:/program files/microchip/xc32/v3.01/bin/bin/../../lib/gcc/pic32c/8.3.1/../../../../pic32c/lib/thumb/v6-m/nofp\libpic32c.a(fstat.o)
 .debug_ranges  0x00000a98       0x10 c:/program files/microchip/xc32/v3.01/bin/bin/../../lib/gcc/pic32c/8.3.1/../../../../pic32c/lib/thumb/v6-m/nofp\libpic32c.a(isatty.o)
 .debug_ranges  0x00000aa8       0x10 c:/program files/microchip/xc32/v3.01/bin/bin/../../lib/gcc/pic32c/8.3.1/../../../../pic32c/lib/thumb/v6-m/nofp\libpic32c.a(lseek.o)
 .debug_ranges  0x00000ab8       0x10 c:/program files/microchip/xc32/v3.01/bin/bin/../../lib/gcc/pic32c/8.3.1/../../../../pic32c/lib/thumb/v6-m/nofp\libpic32c.a(read.o)
 .debug_ranges  0x00000ac8       0x10 c:/program files/microchip/xc32/v3.01/bin/bin/../../lib/gcc/pic32c/8.3.1/../../../../pic32c/lib/thumb/v6-m/nofp\libpic32c.a(write.o)

.debug_line     0x00000000     0x8bd4
 .debug_line    0x00000000      0x928 build/default/production/_ext/869808652/drv_usart.o
 .debug_line    0x00000928      0x4ce build/default/production/_ext/1529399856/osal_freertos.o
 .debug_line    0x00000df6      0x22e build/default/production/_ext/1984496892/plib_clock.o
 .debug_line    0x00001024       0x66 build/default/production/_ext/1986646378/plib_evsys.o
 .debug_line    0x0000108a      0x371 build/default/production/_ext/1865468468/plib_nvic.o
 .debug_line    0x000013fb      0x33b build/default/production/_ext/1593096446/plib_nvmctrl.o
 .debug_line    0x00001736      0x30c build/default/production/_ext/1865521619/plib_port.o
 .debug_line    0x00001a42      0x92d build/default/production/_ext/504274921/plib_sercom5_usart.o
 .debug_line    0x0000236f       0x7d build/default/production/_ext/163028504/xc32_monitor.o
 .debug_line    0x000023ec       0x7d build/default/production/_ext/14461671/sys_dma.o
 .debug_line    0x00002469      0x58a build/default/production/_ext/1171490990/initialization.o
 .debug_line    0x000029f3      0x274 build/default/production/_ext/1171490990/interrupts.o
 .debug_line    0x00002c67      0x275 build/default/production/_ext/1171490990/exceptions.o
 .debug_line    0x00002edc      0x1a3 build/default/production/_ext/1171490990/startup_xc32.o
 .debug_line    0x0000307f      0x161 build/default/production/_ext/1171490990/freertos_hooks.o
 .debug_line    0x000031e0      0x2e1 build/default/production/_ext/1171490990/tasks.o
 .debug_line    0x000034c1      0x372 build/default/production/_ext/1624415188/port.o
 .debug_line    0x00003833      0x2d8 build/default/production/_ext/1665200909/heap_1.o
 .debug_line    0x00003b0b      0x3c0 build/default/production/_ext/404212886/list.o
 .debug_line    0x00003ecb      0xf08 build/default/production/_ext/404212886/queue.o
 .debug_line    0x00004dd3     0x1750 build/default/production/_ext/404212886/FreeRTOS_tasks.o
 .debug_line    0x00006523      0x260 build/default/production/_ext/1360937237/main_d21.o
 .debug_line    0x00006783      0x458 build/default/production/_ext/1360937237/app1.o
 .debug_line    0x00006bdb      0x467 build/default/production/_ext/1360937237/app2.o
 .debug_line    0x00007042      0x2fc build/default/production/_ext/1360937237/app3.o
 .debug_line    0x0000733e      0x3b3 build/default/production/_ext/829342655/plib_tc5.o
 .debug_line    0x000076f1      0x3b3 build/default/production/_ext/829342655/plib_tc4.o
 .debug_line    0x00007aa4      0x132 c:/program files/microchip/xc32/v3.01/bin/bin/../../lib/gcc/pic32c/8.3.1/../../../../pic32c/lib/thumb/v6-m/nofp\libpic32c.a(data_init.o)
 .debug_line    0x00007bd6       0xa7 c:/program files/microchip/xc32/v3.01/bin/bin/../../lib/gcc/pic32c/8.3.1/thumb/v6-m/nofp\libgcc.a(_aeabi_uldivmod.o)
 .debug_line    0x00007c7d      0x3d7 c:/program files/microchip/xc32/v3.01/bin/bin/../../lib/gcc/pic32c/8.3.1/thumb/v6-m/nofp\libgcc.a(_udivmoddi4.o)
 .debug_line    0x00008054       0x9c c:/program files/microchip/xc32/v3.01/bin/bin/../../lib/gcc/pic32c/8.3.1/thumb/v6-m/nofp\libgcc.a(_dvmd_tls.o)
 .debug_line    0x000080f0       0xa6 c:/program files/microchip/xc32/v3.01/bin/bin/../../lib/gcc/pic32c/8.3.1/thumb/v6-m/nofp\libgcc.a(_clzdi2.o)
 .debug_line    0x00008196       0xb0 c:/program files/microchip/xc32/v3.01/bin/bin/../../lib/gcc/pic32c/8.3.1/thumb/v6-m/nofp\libgcc.a(_clzsi2.o)
 .debug_line    0x00008246       0xa2 c:/program files/microchip/xc32/v3.01/bin/bin/../../lib/gcc/pic32c/8.3.1/../../../../pic32c/lib/thumb/v6-m/nofp\libpic32c.a(_close.o)
 .debug_line    0x000082e8       0xa2 c:/program files/microchip/xc32/v3.01/bin/bin/../../lib/gcc/pic32c/8.3.1/../../../../pic32c/lib/thumb/v6-m/nofp\libpic32c.a(_fstat.o)
 .debug_line    0x0000838a       0xa3 c:/program files/microchip/xc32/v3.01/bin/bin/../../lib/gcc/pic32c/8.3.1/../../../../pic32c/lib/thumb/v6-m/nofp\libpic32c.a(_isatty.o)
 .debug_line    0x0000842d       0xa2 c:/program files/microchip/xc32/v3.01/bin/bin/../../lib/gcc/pic32c/8.3.1/../../../../pic32c/lib/thumb/v6-m/nofp\libpic32c.a(_lseek.o)
 .debug_line    0x000084cf       0xa1 c:/program files/microchip/xc32/v3.01/bin/bin/../../lib/gcc/pic32c/8.3.1/../../../../pic32c/lib/thumb/v6-m/nofp\libpic32c.a(_read.o)
 .debug_line    0x00008570       0xb5 c:/program files/microchip/xc32/v3.01/bin/bin/../../lib/gcc/pic32c/8.3.1/../../../../pic32c/lib/thumb/v6-m/nofp\libpic32c.a(sbrk.o)
 .debug_line    0x00008625       0xa2 c:/program files/microchip/xc32/v3.01/bin/bin/../../lib/gcc/pic32c/8.3.1/../../../../pic32c/lib/thumb/v6-m/nofp\libpic32c.a(_write.o)
 .debug_line    0x000086c7       0xa1 c:/program files/microchip/xc32/v3.01/bin/bin/../../lib/gcc/pic32c/8.3.1/../../../../pic32c/lib/thumb/v6-m/nofp\libpic32c.a(close.o)
 .debug_line    0x00008768      0x10c c:/program files/microchip/xc32/v3.01/bin/bin/../../lib/gcc/pic32c/8.3.1/../../../../pic32c/lib/thumb/v6-m/nofp\libpic32c.a(fstat.o)
 .debug_line    0x00008874       0x9d c:/program files/microchip/xc32/v3.01/bin/bin/../../lib/gcc/pic32c/8.3.1/../../../../pic32c/lib/thumb/v6-m/nofp\libpic32c.a(isatty.o)
 .debug_line    0x00008911       0x9e c:/program files/microchip/xc32/v3.01/bin/bin/../../lib/gcc/pic32c/8.3.1/../../../../pic32c/lib/thumb/v6-m/nofp\libpic32c.a(lseek.o)
 .debug_line    0x000089af       0xb8 c:/program files/microchip/xc32/v3.01/bin/bin/../../lib/gcc/pic32c/8.3.1/../../../../pic32c/lib/thumb/v6-m/nofp\libpic32c.a(read.o)
 .debug_line    0x00008a67       0xc5 c:/program files/microchip/xc32/v3.01/bin/bin/../../lib/gcc/pic32c/8.3.1/../../../../pic32c/lib/thumb/v6-m/nofp\libpic32c.a(write.o)
 .debug_line    0x00008b2c       0xa8 c:/program files/microchip/xc32/v3.01/bin/bin/../../lib/gcc/pic32c/8.3.1/thumb/v6-m/nofp\libgcc.a(_udivsi3.o)

.debug_str      0x00000000     0x139e
 .debug_str     0x00000000      0x12d build/default/production/_ext/869808652/drv_usart.o
 .debug_str     0x0000012d      0x13b build/default/production/_ext/1529399856/osal_freertos.o
 .debug_str     0x00000268       0x28 build/default/production/_ext/1984496892/plib_clock.o
 .debug_str     0x00000290        0x0 build/default/production/_ext/1986646378/plib_evsys.o
 .debug_str     0x00000290        0xa build/default/production/_ext/1865468468/plib_nvic.o
 .debug_str     0x0000029a       0x1f build/default/production/_ext/1593096446/plib_nvmctrl.o
 .debug_str     0x000002b9        0xb build/default/production/_ext/1865521619/plib_port.o
 .debug_str     0x000002c4      0x101 build/default/production/_ext/504274921/plib_sercom5_usart.o
 .debug_str     0x000003c5        0x0 build/default/production/_ext/163028504/xc32_monitor.o
 .debug_str     0x000003c5        0x0 build/default/production/_ext/14461671/sys_dma.o
 .debug_str     0x000003c5      0x15b build/default/production/_ext/1171490990/initialization.o
 .debug_str     0x00000520        0xe build/default/production/_ext/1171490990/interrupts.o
 .debug_str     0x0000052e        0xe build/default/production/_ext/1171490990/exceptions.o
 .debug_str     0x0000053c       0x2f build/default/production/_ext/1171490990/startup_xc32.o
 .debug_str     0x0000056b       0x25 build/default/production/_ext/1171490990/freertos_hooks.o
 .debug_str     0x00000590       0x5c build/default/production/_ext/1171490990/tasks.o
 .debug_str     0x000005ec       0x26 build/default/production/_ext/1624415188/port.o
 .debug_str     0x00000612       0x4a build/default/production/_ext/1665200909/heap_1.o
 .debug_str     0x0000065c       0x39 build/default/production/_ext/404212886/list.o
 .debug_str     0x00000695      0x2cd build/default/production/_ext/404212886/queue.o
 .debug_str     0x00000962      0x2b6 build/default/production/_ext/404212886/FreeRTOS_tasks.o
 .debug_str     0x00000c18       0x27 build/default/production/_ext/1360937237/main_d21.o
 .debug_str     0x00000c3f       0xa3 build/default/production/_ext/1360937237/app1.o
 .debug_str     0x00000ce2       0x95 build/default/production/_ext/1360937237/app2.o
 .debug_str     0x00000d77       0x19 build/default/production/_ext/1360937237/app3.o
 .debug_str     0x00000d90       0xb4 build/default/production/_ext/829342655/plib_tc5.o
 .debug_str     0x00000e44       0xb4 build/default/production/_ext/829342655/plib_tc4.o
 .debug_str     0x00000ef8        0x0 c:/program files/microchip/xc32/v3.01/bin/bin/../../lib/gcc/pic32c/8.3.1/../../../../pic32c/lib/thumb/v6-m/nofp\libpic32c.a(data_init.o)
 .debug_str     0x00000ef8       0xee c:/program files/microchip/xc32/v3.01/bin/bin/../../lib/gcc/pic32c/8.3.1/thumb/v6-m/nofp\libgcc.a(_aeabi_uldivmod.o)
 .debug_str     0x00000fe6        0x0 c:/program files/microchip/xc32/v3.01/bin/bin/../../lib/gcc/pic32c/8.3.1/thumb/v6-m/nofp\libgcc.a(_udivmoddi4.o)
 .debug_str     0x00000fe6       0xee c:/program files/microchip/xc32/v3.01/bin/bin/../../lib/gcc/pic32c/8.3.1/thumb/v6-m/nofp\libgcc.a(_dvmd_tls.o)
 .debug_str     0x000010d4       0xee c:/program files/microchip/xc32/v3.01/bin/bin/../../lib/gcc/pic32c/8.3.1/thumb/v6-m/nofp\libgcc.a(_clzdi2.o)
 .debug_str     0x000011c2       0xee c:/program files/microchip/xc32/v3.01/bin/bin/../../lib/gcc/pic32c/8.3.1/thumb/v6-m/nofp\libgcc.a(_clzsi2.o)
 .debug_str     0x000012b0        0x0 c:/program files/microchip/xc32/v3.01/bin/bin/../../lib/gcc/pic32c/8.3.1/../../../../pic32c/lib/thumb/v6-m/nofp\libpic32c.a(_close.o)
 .debug_str     0x000012b0        0x0 c:/program files/microchip/xc32/v3.01/bin/bin/../../lib/gcc/pic32c/8.3.1/../../../../pic32c/lib/thumb/v6-m/nofp\libpic32c.a(_fstat.o)
 .debug_str     0x000012b0        0x0 c:/program files/microchip/xc32/v3.01/bin/bin/../../lib/gcc/pic32c/8.3.1/../../../../pic32c/lib/thumb/v6-m/nofp\libpic32c.a(_isatty.o)
 .debug_str     0x000012b0        0x0 c:/program files/microchip/xc32/v3.01/bin/bin/../../lib/gcc/pic32c/8.3.1/../../../../pic32c/lib/thumb/v6-m/nofp\libpic32c.a(_lseek.o)
 .debug_str     0x000012b0        0x0 c:/program files/microchip/xc32/v3.01/bin/bin/../../lib/gcc/pic32c/8.3.1/../../../../pic32c/lib/thumb/v6-m/nofp\libpic32c.a(_read.o)
 .debug_str     0x000012b0        0x0 c:/program files/microchip/xc32/v3.01/bin/bin/../../lib/gcc/pic32c/8.3.1/../../../../pic32c/lib/thumb/v6-m/nofp\libpic32c.a(sbrk.o)
 .debug_str     0x000012b0        0x0 c:/program files/microchip/xc32/v3.01/bin/bin/../../lib/gcc/pic32c/8.3.1/../../../../pic32c/lib/thumb/v6-m/nofp\libpic32c.a(_write.o)
 .debug_str     0x000012b0        0x0 c:/program files/microchip/xc32/v3.01/bin/bin/../../lib/gcc/pic32c/8.3.1/../../../../pic32c/lib/thumb/v6-m/nofp\libpic32c.a(close.o)
 .debug_str     0x000012b0        0x0 c:/program files/microchip/xc32/v3.01/bin/bin/../../lib/gcc/pic32c/8.3.1/../../../../pic32c/lib/thumb/v6-m/nofp\libpic32c.a(fstat.o)
 .debug_str     0x000012b0        0x0 c:/program files/microchip/xc32/v3.01/bin/bin/../../lib/gcc/pic32c/8.3.1/../../../../pic32c/lib/thumb/v6-m/nofp\libpic32c.a(isatty.o)
 .debug_str     0x000012b0        0x0 c:/program files/microchip/xc32/v3.01/bin/bin/../../lib/gcc/pic32c/8.3.1/../../../../pic32c/lib/thumb/v6-m/nofp\libpic32c.a(lseek.o)
 .debug_str     0x000012b0        0x0 c:/program files/microchip/xc32/v3.01/bin/bin/../../lib/gcc/pic32c/8.3.1/../../../../pic32c/lib/thumb/v6-m/nofp\libpic32c.a(read.o)
 .debug_str     0x000012b0        0x0 c:/program files/microchip/xc32/v3.01/bin/bin/../../lib/gcc/pic32c/8.3.1/../../../../pic32c/lib/thumb/v6-m/nofp\libpic32c.a(write.o)
 .debug_str     0x000012b0       0xee c:/program files/microchip/xc32/v3.01/bin/bin/../../lib/gcc/pic32c/8.3.1/thumb/v6-m/nofp\libgcc.a(_udivsi3.o)

.debug_frame    0x00000000     0x162c
 .debug_frame   0x00000000      0x128 build/default/production/_ext/869808652/drv_usart.o
 .debug_frame   0x00000128      0x174 build/default/production/_ext/1529399856/osal_freertos.o
 .debug_frame   0x0000029c       0x20 build/default/production/_ext/1984496892/plib_clock.o
 .debug_frame   0x000002bc       0x20 build/default/production/_ext/1986646378/plib_evsys.o
 .debug_frame   0x000002dc       0x50 build/default/production/_ext/1865468468/plib_nvic.o
 .debug_frame   0x0000032c       0xb8 build/default/production/_ext/1593096446/plib_nvmctrl.o
 .debug_frame   0x000003e4       0xcc build/default/production/_ext/1865521619/plib_port.o
 .debug_frame   0x000004b0      0x180 build/default/production/_ext/504274921/plib_sercom5_usart.o
 .debug_frame   0x00000630       0x30 build/default/production/_ext/163028504/xc32_monitor.o
 .debug_frame   0x00000660       0x30 build/default/production/_ext/14461671/sys_dma.o
 .debug_frame   0x00000690       0x28 build/default/production/_ext/1171490990/initialization.o
 .debug_frame   0x000006b8       0x20 build/default/production/_ext/1171490990/interrupts.o
 .debug_frame   0x000006d8       0x30 build/default/production/_ext/1171490990/exceptions.o
 .debug_frame   0x00000708       0x38 build/default/production/_ext/1171490990/startup_xc32.o
 .debug_frame   0x00000740       0x68 build/default/production/_ext/1171490990/freertos_hooks.o
 .debug_frame   0x000007a8       0x74 build/default/production/_ext/1171490990/tasks.o
 .debug_frame   0x0000081c      0x10c build/default/production/_ext/1624415188/port.o
 .debug_frame   0x00000928       0x5c build/default/production/_ext/1665200909/heap_1.o
 .debug_frame   0x00000984       0x6c build/default/production/_ext/404212886/list.o
 .debug_frame   0x000009f0      0x26c build/default/production/_ext/404212886/queue.o
 .debug_frame   0x00000c5c      0x470 build/default/production/_ext/404212886/FreeRTOS_tasks.o
 .debug_frame   0x000010cc       0x28 build/default/production/_ext/1360937237/main_d21.o
 .debug_frame   0x000010f4       0x5c build/default/production/_ext/1360937237/app1.o
 .debug_frame   0x00001150       0x5c build/default/production/_ext/1360937237/app2.o
 .debug_frame   0x000011ac       0x38 build/default/production/_ext/1360937237/app3.o
 .debug_frame   0x000011e4       0xe8 build/default/production/_ext/829342655/plib_tc5.o
 .debug_frame   0x000012cc       0xe8 build/default/production/_ext/829342655/plib_tc4.o
 .debug_frame   0x000013b4       0x34 c:/program files/microchip/xc32/v3.01/bin/bin/../../lib/gcc/pic32c/8.3.1/../../../../pic32c/lib/thumb/v6-m/nofp\libpic32c.a(data_init.o)
 .debug_frame   0x000013e8       0x3c c:/program files/microchip/xc32/v3.01/bin/bin/../../lib/gcc/pic32c/8.3.1/thumb/v6-m/nofp\libgcc.a(_udivmoddi4.o)
 .debug_frame   0x00001424       0x28 c:/program files/microchip/xc32/v3.01/bin/bin/../../lib/gcc/pic32c/8.3.1/../../../../pic32c/lib/thumb/v6-m/nofp\libpic32c.a(_close.o)
 .debug_frame   0x0000144c       0x28 c:/program files/microchip/xc32/v3.01/bin/bin/../../lib/gcc/pic32c/8.3.1/../../../../pic32c/lib/thumb/v6-m/nofp\libpic32c.a(_fstat.o)
 .debug_frame   0x00001474       0x28 c:/program files/microchip/xc32/v3.01/bin/bin/../../lib/gcc/pic32c/8.3.1/../../../../pic32c/lib/thumb/v6-m/nofp\libpic32c.a(_isatty.o)
 .debug_frame   0x0000149c       0x28 c:/program files/microchip/xc32/v3.01/bin/bin/../../lib/gcc/pic32c/8.3.1/../../../../pic32c/lib/thumb/v6-m/nofp\libpic32c.a(_lseek.o)
 .debug_frame   0x000014c4       0x28 c:/program files/microchip/xc32/v3.01/bin/bin/../../lib/gcc/pic32c/8.3.1/../../../../pic32c/lib/thumb/v6-m/nofp\libpic32c.a(_read.o)
 .debug_frame   0x000014ec       0x20 c:/program files/microchip/xc32/v3.01/bin/bin/../../lib/gcc/pic32c/8.3.1/../../../../pic32c/lib/thumb/v6-m/nofp\libpic32c.a(sbrk.o)
 .debug_frame   0x0000150c       0x28 c:/program files/microchip/xc32/v3.01/bin/bin/../../lib/gcc/pic32c/8.3.1/../../../../pic32c/lib/thumb/v6-m/nofp\libpic32c.a(_write.o)
 .debug_frame   0x00001534       0x20 c:/program files/microchip/xc32/v3.01/bin/bin/../../lib/gcc/pic32c/8.3.1/../../../../pic32c/lib/thumb/v6-m/nofp\libpic32c.a(close.o)
 .debug_frame   0x00001554       0x20 c:/program files/microchip/xc32/v3.01/bin/bin/../../lib/gcc/pic32c/8.3.1/../../../../pic32c/lib/thumb/v6-m/nofp\libpic32c.a(fstat.o)
 .debug_frame   0x00001574       0x20 c:/program files/microchip/xc32/v3.01/bin/bin/../../lib/gcc/pic32c/8.3.1/../../../../pic32c/lib/thumb/v6-m/nofp\libpic32c.a(isatty.o)
 .debug_frame   0x00001594       0x20 c:/program files/microchip/xc32/v3.01/bin/bin/../../lib/gcc/pic32c/8.3.1/../../../../pic32c/lib/thumb/v6-m/nofp\libpic32c.a(lseek.o)
 .debug_frame   0x000015b4       0x2c c:/program files/microchip/xc32/v3.01/bin/bin/../../lib/gcc/pic32c/8.3.1/../../../../pic32c/lib/thumb/v6-m/nofp\libpic32c.a(read.o)
 .debug_frame   0x000015e0       0x2c c:/program files/microchip/xc32/v3.01/bin/bin/../../lib/gcc/pic32c/8.3.1/../../../../pic32c/lib/thumb/v6-m/nofp\libpic32c.a(write.o)
 .debug_frame   0x0000160c       0x20 c:/program files/microchip/xc32/v3.01/bin/bin/../../lib/gcc/pic32c/8.3.1/thumb/v6-m/nofp\libgcc.a(_udivsi3.o)

.stack          0x200016c8      0x100
 .stack         0x200016c8      0x100 stack

.bss.ucHeap%1   0x20000004     0x1000
 .bss.ucHeap    0x20000004     0x1000 build/default/production/_ext/1665200909/heap_1.o

.data.__global_locale%2
                0x20001004      0x16c
 .data.__global_locale
                0x20001004      0x16c c:/program files/microchip/xc32/v3.01/bin/bin/../../lib/gcc/pic32c/8.3.1/../../../../pic32c/lib/thumb/v6-m/nofp\libc_nano.a(lib_a-locale.o)
                0x20001004                __global_locale

.bss.pxReadyTasksLists%3
                0x20001170       0x64
 .bss.pxReadyTasksLists
                0x20001170       0x64 build/default/production/_ext/404212886/FreeRTOS_tasks.o

.data.impure_data%4
                0x200011d4       0x60
 .data.impure_data
                0x200011d4       0x60 c:/program files/microchip/xc32/v3.01/bin/bin/../../lib/gcc/pic32c/8.3.1/../../../../pic32c/lib/thumb/v6-m/nofp\libc_nano.a(lib_a-impure.o)

.bss.gDrvUSARTObj%5
                0x20001234       0x5c
 .bss.gDrvUSARTObj
                0x20001234       0x5c build/default/production/_ext/869808652/drv_usart.o

.bss.sercom5USARTObj%6
                0x20001290       0x30
 .bss.sercom5USARTObj
                0x20001290       0x30 build/default/production/_ext/504274921/plib_sercom5_usart.o

.bss.app1Data%7
                0x200012c0       0x30
 .bss.app1Data  0x200012c0       0x30 build/default/production/_ext/1360937237/app1.o
                0x200012c0                app1Data

.bss.app2Data%8
                0x200012f0       0x30
 .bss.app2Data  0x200012f0       0x30 build/default/production/_ext/1360937237/app2.o
                0x200012f0                app2Data

.bss.drvUSART0ClientObjPool%9
                0x20001320       0x20
 .bss.drvUSART0ClientObjPool
                0x20001320       0x20 build/default/production/_ext/1171490990/initialization.o

.bss.__sf_fake_stderr%10
                0x20001340       0x20
 .bss.__sf_fake_stderr
                0x20001340       0x20 c:/program files/microchip/xc32/v3.01/bin/bin/../../lib/gcc/pic32c/8.3.1/../../../../pic32c/lib/thumb/v6-m/nofp\libc_nano.a(lib_a-findfp.o)
                0x20001340                __sf_fake_stderr

.bss.__sf_fake_stdin%11
                0x20001360       0x20
 .bss.__sf_fake_stdin
                0x20001360       0x20 c:/program files/microchip/xc32/v3.01/bin/bin/../../lib/gcc/pic32c/8.3.1/../../../../pic32c/lib/thumb/v6-m/nofp\libc_nano.a(lib_a-findfp.o)
                0x20001360                __sf_fake_stdin

.bss.__sf_fake_stdout%12
                0x20001380       0x20
 .bss.__sf_fake_stdout
                0x20001380       0x20 c:/program files/microchip/xc32/v3.01/bin/bin/../../lib/gcc/pic32c/8.3.1/../../../../pic32c/lib/thumb/v6-m/nofp\libc_nano.a(lib_a-findfp.o)
                0x20001380                __sf_fake_stdout

.bss%13         0x200013a0       0x1c
 .bss           0x200013a0       0x1c c:/program files/microchip/xc32/v3.01/bin/bin/../../lib/gcc/pic32c/8.3.1/thumb/v6-m/nofp/crtbegin.o

.bss.xDelayedTaskList1%14
                0x200013bc       0x14
 .bss.xDelayedTaskList1
                0x200013bc       0x14 build/default/production/_ext/404212886/FreeRTOS_tasks.o

.bss.xDelayedTaskList2%15
                0x200013d0       0x14
 .bss.xDelayedTaskList2
                0x200013d0       0x14 build/default/production/_ext/404212886/FreeRTOS_tasks.o

.bss.xPendingReadyList%16
                0x200013e4       0x14
 .bss.xPendingReadyList
                0x200013e4       0x14 build/default/production/_ext/404212886/FreeRTOS_tasks.o

.bss.xSuspendedTaskList%17
                0x200013f8       0x14
 .bss.xSuspendedTaskList
                0x200013f8       0x14 build/default/production/_ext/404212886/FreeRTOS_tasks.o

.bss.xTasksWaitingTermination%18
                0x2000140c       0x14
 .bss.xTasksWaitingTermination
                0x2000140c       0x14 build/default/production/_ext/404212886/FreeRTOS_tasks.o

.bss.TC5_CallbackObject%19
                0x20001420        0x8
 .bss.TC5_CallbackObject
                0x20001420        0x8 build/default/production/_ext/829342655/plib_tc5.o
                0x20001420                TC5_CallbackObject

.bss.TC4_CallbackObject%20
                0x20001428        0x8
 .bss.TC4_CallbackObject
                0x20001428        0x8 build/default/production/_ext/829342655/plib_tc4.o
                0x20001428                TC4_CallbackObject

.bss.sysObj%21  0x20001430        0x4
 .bss.sysObj    0x20001430        0x4 build/default/production/_ext/1171490990/initialization.o
                0x20001430                sysObj

.bss.xAPP1_Tasks%22
                0x20001434        0x4
 .bss.xAPP1_Tasks
                0x20001434        0x4 build/default/production/_ext/1171490990/tasks.o
                0x20001434                xAPP1_Tasks

.bss.xAPP2_Tasks%23
                0x20001438        0x4
 .bss.xAPP2_Tasks
                0x20001438        0x4 build/default/production/_ext/1171490990/tasks.o
                0x20001438                xAPP2_Tasks

.bss.xAPP3_Tasks%24
                0x2000143c        0x4
 .bss.xAPP3_Tasks
                0x2000143c        0x4 build/default/production/_ext/1171490990/tasks.o
                0x2000143c                xAPP3_Tasks

.data.uxCriticalNesting%25
                0x20001440        0x4
 .data.uxCriticalNesting
                0x20001440        0x4 build/default/production/_ext/1624415188/port.o

.bss.pucAlignedHeap.5233%26
                0x20001444        0x4
 .bss.pucAlignedHeap.5233
                0x20001444        0x4 build/default/production/_ext/1665200909/heap_1.o

.bss.xNextFreeByte%27
                0x20001448        0x4
 .bss.xNextFreeByte
                0x20001448        0x4 build/default/production/_ext/1665200909/heap_1.o

.bss.pxCurrentTCB%28
                0x2000144c        0x4
 .bss.pxCurrentTCB
                0x2000144c        0x4 build/default/production/_ext/404212886/FreeRTOS_tasks.o
                0x2000144c                pxCurrentTCB

.bss.pxDelayedTaskList%29
                0x20001450        0x4
 .bss.pxDelayedTaskList
                0x20001450        0x4 build/default/production/_ext/404212886/FreeRTOS_tasks.o

.bss.pxOverflowDelayedTaskList%30
                0x20001454        0x4
 .bss.pxOverflowDelayedTaskList
                0x20001454        0x4 build/default/production/_ext/404212886/FreeRTOS_tasks.o

.bss.uxCurrentNumberOfTasks%31
                0x20001458        0x4
 .bss.uxCurrentNumberOfTasks
                0x20001458        0x4 build/default/production/_ext/404212886/FreeRTOS_tasks.o

.bss.uxDeletedTasksWaitingCleanUp%32
                0x2000145c        0x4
 .bss.uxDeletedTasksWaitingCleanUp
                0x2000145c        0x4 build/default/production/_ext/404212886/FreeRTOS_tasks.o

.bss.uxSchedulerSuspended%33
                0x20001460        0x4
 .bss.uxSchedulerSuspended
                0x20001460        0x4 build/default/production/_ext/404212886/FreeRTOS_tasks.o

.bss.uxTaskNumber%34
                0x20001464        0x4
 .bss.uxTaskNumber
                0x20001464        0x4 build/default/production/_ext/404212886/FreeRTOS_tasks.o

.bss.uxTopReadyPriority%35
                0x20001468        0x4
 .bss.uxTopReadyPriority
                0x20001468        0x4 build/default/production/_ext/404212886/FreeRTOS_tasks.o

.bss.xIdleTaskHandle%36
                0x2000146c        0x4
 .bss.xIdleTaskHandle
                0x2000146c        0x4 build/default/production/_ext/404212886/FreeRTOS_tasks.o

.bss.xNextTaskUnblockTime%37
                0x20001470        0x4
 .bss.xNextTaskUnblockTime
                0x20001470        0x4 build/default/production/_ext/404212886/FreeRTOS_tasks.o

.bss.xNumOfOverflows%38
                0x20001474        0x4
 .bss.xNumOfOverflows
                0x20001474        0x4 build/default/production/_ext/404212886/FreeRTOS_tasks.o

.bss.xPendedTicks%39
                0x20001478        0x4
 .bss.xPendedTicks
                0x20001478        0x4 build/default/production/_ext/404212886/FreeRTOS_tasks.o

.bss.xSchedulerRunning%40
                0x2000147c        0x4
 .bss.xSchedulerRunning
                0x2000147c        0x4 build/default/production/_ext/404212886/FreeRTOS_tasks.o

.bss.xTickCount%41
                0x20001480        0x4
 .bss.xTickCount
                0x20001480        0x4 build/default/production/_ext/404212886/FreeRTOS_tasks.o

.bss.xYieldPending%42
                0x20001484        0x4
 .bss.xYieldPending
                0x20001484        0x4 build/default/production/_ext/404212886/FreeRTOS_tasks.o

.bss.eventQueue%43
                0x20001488        0x4
 .bss.eventQueue
                0x20001488        0x4 build/default/production/_ext/1360937237/app1.o
                0x20001488                eventQueue

.bss.times%44   0x2000148c        0x4
 .bss.times     0x2000148c        0x4 build/default/production/_ext/1360937237/app1.o
                0x2000148c                times

.bss%45         0x20001490        0x4
 .bss           0x20001490        0x4 c:/program files/microchip/xc32/v3.01/bin/bin/../../lib/gcc/pic32c/8.3.1/../../../../pic32c/lib/thumb/v6-m/nofp\libpic32c.a(data_init.o)

.data._impure_ptr%46
                0x20001494        0x4
 .data._impure_ptr
                0x20001494        0x4 c:/program files/microchip/xc32/v3.01/bin/bin/../../lib/gcc/pic32c/8.3.1/../../../../pic32c/lib/thumb/v6-m/nofp\libc_nano.a(lib_a-impure.o)
                0x20001494                _impure_ptr

.bss.__malloc_free_list%47
                0x20001498        0x4
 .bss.__malloc_free_list
                0x20001498        0x4 c:/program files/microchip/xc32/v3.01/bin/bin/../../lib/gcc/pic32c/8.3.1/../../../../pic32c/lib/thumb/v6-m/nofp\libc_nano.a(lib_a-nano-mallocr.o)
                0x20001498                __malloc_free_list

.bss.__malloc_sbrk_start%48
                0x2000149c        0x4
 .bss.__malloc_sbrk_start
                0x2000149c        0x4 c:/program files/microchip/xc32/v3.01/bin/bin/../../lib/gcc/pic32c/8.3.1/../../../../pic32c/lib/thumb/v6-m/nofp\libc_nano.a(lib_a-nano-mallocr.o)
                0x2000149c                __malloc_sbrk_start

.bss%49         0x200014a0        0x4
 .bss           0x200014a0        0x4 c:/program files/microchip/xc32/v3.01/bin/bin/../../lib/gcc/pic32c/8.3.1/../../../../pic32c/lib/thumb/v6-m/nofp\libpic32c.a(sbrk.o)

.bss.BT2_Press%50
                0x200014a4        0x1
 .bss.BT2_Press
                0x200014a4        0x1 build/default/production/_ext/1360937237/app1.o
                0x200014a4                BT2_Press

.bss.TC4_active%51
                0x200014a5        0x1
 .bss.TC4_active
                0x200014a5        0x1 build/default/production/_ext/1360937237/app1.o
                0x200014a5                TC4_active

.bss.BT3_Press%52
                0x200014a6        0x1
 .bss.BT3_Press
                0x200014a6        0x1 build/default/production/_ext/1360937237/app2.o
                0x200014a6                BT3_Press

.bss.TC5_active%53
                0x200014a7        0x1
 .bss.TC5_active
                0x200014a7        0x1 build/default/production/_ext/1360937237/app2.o
                0x200014a7                TC5_active

.eh_frame%z1    0x00000000        0x0
 .eh_frame      0x00000000        0x0 c:/program files/microchip/xc32/v3.01/bin/bin/../../lib/gcc/pic32c/8.3.1/thumb/v6-m/nofp/crtbegin.o

.dinit%54       0x000000d8      0x470
 .dinit         0x000000d8      0x470 data_init

.text._vfprintf_r_cdnopuxX%55
                0x00000548      0x3c4
 .text._vfprintf_r_cdnopuxX
                0x00000548      0x3c4 c:/program files/microchip/xc32/v3.01/bin/bin/../../lib/gcc/pic32c/8.3.1/../../../../pic32c/lib/thumb/v6-m/nofp\libc_nano.a(_lib_a-nano-vfprintf.cdnopuxX.o)
                0x00000548                _vfprintf_r_cdnopuxX

.text.xTaskCreate%56
                0x0000090c      0x1d4
 .text.xTaskCreate
                0x0000090c      0x1d4 build/default/production/_ext/404212886/FreeRTOS_tasks.o
                0x0000090c                xTaskCreate

.text%57        0x00000ae0      0x1a4
 .text          0x00000ae0      0x1a4 c:/program files/microchip/xc32/v3.01/bin/bin/../../lib/gcc/pic32c/8.3.1/thumb/v6-m/nofp\libgcc.a(_udivmoddi4.o)
                0x00000ae0                __udivmoddi4

.text.SERCOM5_USART_InterruptHandler%58
                0x00000c84      0x180
 .text.SERCOM5_USART_InterruptHandler
                0x00000c84      0x180 build/default/production/_ext/504274921/plib_sercom5_usart.o
                0x00000c84                SERCOM5_USART_InterruptHandler

.text.xQueueSemaphoreTake%59
                0x00000e04      0x136
 .text.xQueueSemaphoreTake
                0x00000e04      0x136 build/default/production/_ext/404212886/queue.o
                0x00000e04                xQueueSemaphoreTake

.text.SERCOM5_USART_SerialSetup%60
                0x00000f3c      0x134
 .text.SERCOM5_USART_SerialSetup
                0x00000f3c      0x134 build/default/production/_ext/504274921/plib_sercom5_usart.o
                0x00000f3c                SERCOM5_USART_SerialSetup

.text.xTaskIncrementTick%61
                0x00001070      0x11c
 .text.xTaskIncrementTick
                0x00001070      0x11c build/default/production/_ext/404212886/FreeRTOS_tasks.o
                0x00001070                xTaskIncrementTick

.text.__sflush_r%62
                0x0000118c      0x114
 .text.__sflush_r
                0x0000118c      0x114 c:/program files/microchip/xc32/v3.01/bin/bin/../../lib/gcc/pic32c/8.3.1/../../../../pic32c/lib/thumb/v6-m/nofp\libc_nano.a(lib_a-fflush.o)
                0x0000118c                __sflush_r

.text%63        0x000012a0      0x114
 .text          0x000012a0      0x114 c:/program files/microchip/xc32/v3.01/bin/bin/../../lib/gcc/pic32c/8.3.1/thumb/v6-m/nofp\libgcc.a(_udivsi3.o)
                0x000012a0                __aeabi_uidiv
                0x000012a0                __udivsi3
                0x000013ac                __aeabi_uidivmod

.text.DRV_USART_Initialize%64
                0x000013b4      0x108
 .text.DRV_USART_Initialize
                0x000013b4      0x108 build/default/production/_ext/869808652/drv_usart.o
                0x000013b4                DRV_USART_Initialize

.text.xQueueGenericSend%65
                0x000014bc      0x108
 .text.xQueueGenericSend
                0x000014bc      0x108 build/default/production/_ext/404212886/queue.o
                0x000014bc                xQueueGenericSend

.rodata._ctype_%66
                0x000015c4      0x101
 .rodata._ctype_
                0x000015c4      0x101 c:/program files/microchip/xc32/v3.01/bin/bin/../../lib/gcc/pic32c/8.3.1/../../../../pic32c/lib/thumb/v6-m/nofp\libc_nano.a(lib_a-ctype_.o)
                0x000015c4                _ctype_

.text.xQueueReceive%67
                0x000016c6       0xf8
 .text.xQueueReceive
                0x000016c6       0xf8 build/default/production/_ext/404212886/queue.o
                0x000016c6                xQueueReceive

.text.__swsetup_r%68
                0x000017c0       0xec
 .text.__swsetup_r
                0x000017c0       0xec c:/program files/microchip/xc32/v3.01/bin/bin/../../lib/gcc/pic32c/8.3.1/../../../../pic32c/lib/thumb/v6-m/nofp\libc_nano.a(lib_a-wsetup.o)
                0x000017c0                __swsetup_r

.text.DRV_USART_Open%69
                0x000018ac       0xe8
 .text.DRV_USART_Open
                0x000018ac       0xe8 build/default/production/_ext/869808652/drv_usart.o
                0x000018ac                DRV_USART_Open

.text.xTaskResumeAll%70
                0x00001994       0xe0
 .text.xTaskResumeAll
                0x00001994       0xe0 build/default/production/_ext/404212886/FreeRTOS_tasks.o
                0x00001994                xTaskResumeAll

.text._printf_common%71
                0x00001a74       0xda
 .text._printf_common
                0x00001a74       0xda c:/program files/microchip/xc32/v3.01/bin/bin/../../lib/gcc/pic32c/8.3.1/../../../../pic32c/lib/thumb/v6-m/nofp\libc_nano.a(lib_a-nano-vfprintf_i.o)
                0x00001a74                _printf_common

.text.__swbuf_r%72
                0x00001b50       0xcc
 .text.__swbuf_r
                0x00001b50       0xcc c:/program files/microchip/xc32/v3.01/bin/bin/../../lib/gcc/pic32c/8.3.1/../../../../pic32c/lib/thumb/v6-m/nofp\libc_nano.a(lib_a-wbuf.o)
                0x00001b50                __swbuf_r

.text.vTaskSwitchContext%73
                0x00001c1c       0xc4
 .text.vTaskSwitchContext
                0x00001c1c       0xc4 build/default/production/_ext/404212886/FreeRTOS_tasks.o
                0x00001c1c                vTaskSwitchContext

.text.APP1_Tasks%74
                0x00001ce0       0xc0
 .text.APP1_Tasks
                0x00001ce0       0xc0 build/default/production/_ext/1360937237/app1.o
                0x00001ce0                APP1_Tasks

.text.APP2_Tasks%75
                0x00001da0       0xc0
 .text.APP2_Tasks
                0x00001da0       0xc0 build/default/production/_ext/1360937237/app2.o
                0x00001da0                APP2_Tasks

.text._malloc_r%76
                0x00001e60       0xbc
 .text._malloc_r
                0x00001e60       0xbc c:/program files/microchip/xc32/v3.01/bin/bin/../../lib/gcc/pic32c/8.3.1/../../../../pic32c/lib/thumb/v6-m/nofp\libc_nano.a(lib_a-nano-mallocr.o)
                0x00001e60                _malloc_r

.text.CLOCK_Initialize%77
                0x00001f1c       0x9c
 .text.CLOCK_Initialize
                0x00001f1c       0x9c build/default/production/_ext/1984496892/plib_clock.o
                0x00001f1c                CLOCK_Initialize

.text.DRV_USART_WriteBuffer%78
                0x00001fb8       0x94
 .text.DRV_USART_WriteBuffer
                0x00001fb8       0x94 build/default/production/_ext/869808652/drv_usart.o
                0x00001fb8                DRV_USART_WriteBuffer

.text.__smakebuf_r%79
                0x0000204c       0x94
 .text.__smakebuf_r
                0x0000204c       0x94 c:/program files/microchip/xc32/v3.01/bin/bin/../../lib/gcc/pic32c/8.3.1/../../../../pic32c/lib/thumb/v6-m/nofp\libc_nano.a(lib_a-makebuf.o)
                0x0000204c                __smakebuf_r

.text._free_r%80
                0x000020e0       0x94
 .text._free_r  0x000020e0       0x94 c:/program files/microchip/xc32/v3.01/bin/bin/../../lib/gcc/pic32c/8.3.1/../../../../pic32c/lib/thumb/v6-m/nofp\libc_nano.a(lib_a-nano-freer.o)
                0x000020e0                _free_r

.text.xTaskPriorityInherit%81
                0x00002174       0x90
 .text.xTaskPriorityInherit
                0x00002174       0x90 build/default/production/_ext/404212886/FreeRTOS_tasks.o
                0x00002174                xTaskPriorityInherit

.text.__pic32c_data_initialization%82
                0x00002204       0x90
 .text.__pic32c_data_initialization
                0x00002204       0x90 c:/program files/microchip/xc32/v3.01/bin/bin/../../lib/gcc/pic32c/8.3.1/../../../../pic32c/lib/thumb/v6-m/nofp\libpic32c.a(data_init.o)
                0x00002204                __pic32c_data_initialization

.text.prvUnlockQueue%83
                0x00002294       0x86
 .text.prvUnlockQueue
                0x00002294       0x86 build/default/production/_ext/404212886/queue.o

.text.prvAddCurrentTaskToDelayedList%84
                0x0000231c       0x7c
 .text.prvAddCurrentTaskToDelayedList
                0x0000231c       0x7c build/default/production/_ext/404212886/FreeRTOS_tasks.o

.text.__sfp%85  0x00002398       0x7c
 .text.__sfp    0x00002398       0x7c c:/program files/microchip/xc32/v3.01/bin/bin/../../lib/gcc/pic32c/8.3.1/../../../../pic32c/lib/thumb/v6-m/nofp\libc_nano.a(lib_a-findfp.o)
                0x00002398                __sfp

.text.__fputwc%86
                0x00002414       0x7c
 .text.__fputwc
                0x00002414       0x7c c:/program files/microchip/xc32/v3.01/bin/bin/../../lib/gcc/pic32c/8.3.1/../../../../pic32c/lib/thumb/v6-m/nofp\libc_nano.a(lib_a-fputwc.o)
                0x00002414                __fputwc

.text.xTaskRemoveFromEventList%87
                0x00002490       0x78
 .text.xTaskRemoveFromEventList
                0x00002490       0x78 build/default/production/_ext/404212886/FreeRTOS_tasks.o
                0x00002490                xTaskRemoveFromEventList

.text.prvCopyDataToQueue%88
                0x00002508       0x76
 .text.prvCopyDataToQueue
                0x00002508       0x76 build/default/production/_ext/404212886/queue.o

.text.pvPortMalloc%89
                0x00002580       0x70
 .text.pvPortMalloc
                0x00002580       0x70 build/default/production/_ext/1665200909/heap_1.o
                0x00002580                pvPortMalloc

.text.vTaskPriorityDisinheritAfterTimeout%90
                0x000025f0       0x6c
 .text.vTaskPriorityDisinheritAfterTimeout
                0x000025f0       0x6c build/default/production/_ext/404212886/FreeRTOS_tasks.o
                0x000025f0                vTaskPriorityDisinheritAfterTimeout

.text.SYS_Tasks%91
                0x0000265c       0x68
 .text.SYS_Tasks
                0x0000265c       0x68 build/default/production/_ext/1171490990/tasks.o
                0x0000265c                SYS_Tasks

.text.prvIdleTask%92
                0x000026c4       0x68
 .text.prvIdleTask
                0x000026c4       0x68 build/default/production/_ext/404212886/FreeRTOS_tasks.o

.text.__sinit%93
                0x0000272c       0x68
 .text.__sinit  0x0000272c       0x68 c:/program files/microchip/xc32/v3.01/bin/bin/../../lib/gcc/pic32c/8.3.1/../../../../pic32c/lib/thumb/v6-m/nofp\libc_nano.a(lib_a-findfp.o)
                0x0000272c                __sinit

.text.xQueueGenericReset%94
                0x00002794       0x62
 .text.xQueueGenericReset
                0x00002794       0x62 build/default/production/_ext/404212886/queue.o
                0x00002794                xQueueGenericReset

.text.SERCOM5_USART_Write%95
                0x000027f8       0x60
 .text.SERCOM5_USART_Write
                0x000027f8       0x60 build/default/production/_ext/504274921/plib_sercom5_usart.o
                0x000027f8                SERCOM5_USART_Write

.text.xTaskPriorityDisinherit%96
                0x00002858       0x60
 .text.xTaskPriorityDisinherit
                0x00002858       0x60 build/default/production/_ext/404212886/FreeRTOS_tasks.o
                0x00002858                xTaskPriorityDisinherit

.text.OSAL_SEM_Create%97
                0x000028b8       0x5a
 .text.OSAL_SEM_Create
                0x000028b8       0x5a build/default/production/_ext/1529399856/osal_freertos.o
                0x000028b8                OSAL_SEM_Create

.text.xQueueGiveFromISR%98
                0x00002912       0x5a
 .text.xQueueGiveFromISR
                0x00002912       0x5a build/default/production/_ext/404212886/queue.o
                0x00002912                xQueueGiveFromISR

.text.NVIC_Initialize%99
                0x0000296c       0x58
 .text.NVIC_Initialize
                0x0000296c       0x58 build/default/production/_ext/1865468468/plib_nvic.o
                0x0000296c                NVIC_Initialize

.text.SERCOM5_USART_Initialize%100
                0x000029c4       0x58
 .text.SERCOM5_USART_Initialize
                0x000029c4       0x58 build/default/production/_ext/504274921/plib_sercom5_usart.o
                0x000029c4                SERCOM5_USART_Initialize

.text.xTaskCheckForTimeOut%101
                0x00002a1c       0x58
 .text.xTaskCheckForTimeOut
                0x00002a1c       0x58 build/default/production/_ext/404212886/FreeRTOS_tasks.o
                0x00002a1c                xTaskCheckForTimeOut

.text._fflush_r%102
                0x00002a74       0x58
 .text._fflush_r
                0x00002a74       0x58 c:/program files/microchip/xc32/v3.01/bin/bin/../../lib/gcc/pic32c/8.3.1/../../../../pic32c/lib/thumb/v6-m/nofp\libc_nano.a(lib_a-fflush.o)
                0x00002a74                _fflush_r

.text.vTaskStartScheduler%103
                0x00002acc       0x54
 .text.vTaskStartScheduler
                0x00002acc       0x54 build/default/production/_ext/404212886/FreeRTOS_tasks.o
                0x00002acc                vTaskStartScheduler

.text._DRV_USART_RX_PLIB_CallbackHandler%104
                0x00002b20       0x50
 .text._DRV_USART_RX_PLIB_CallbackHandler
                0x00002b20       0x50 build/default/production/_ext/869808652/drv_usart.o

.text.SYS_Initialize%105
                0x00002b70       0x50
 .text.SYS_Initialize
                0x00002b70       0x50 build/default/production/_ext/1171490990/initialization.o
                0x00002b70                SYS_Initialize

.text.__swhatbuf_r%106
                0x00002bc0       0x50
 .text.__swhatbuf_r
                0x00002bc0       0x50 c:/program files/microchip/xc32/v3.01/bin/bin/../../lib/gcc/pic32c/8.3.1/../../../../pic32c/lib/thumb/v6-m/nofp\libc_nano.a(lib_a-makebuf.o)
                0x00002bc0                __swhatbuf_r

.text%107       0x00002c10       0x48
 .text          0x00002c10       0x48 c:/program files/microchip/xc32/v3.01/bin/bin/../../lib/gcc/pic32c/8.3.1/thumb/v6-m/nofp/crtbegin.o

.text._DRV_USART_DriverHandleValidate%108
                0x00002c58       0x48
 .text._DRV_USART_DriverHandleValidate
                0x00002c58       0x48 build/default/production/_ext/869808652/drv_usart.o

.text.Reset_Handler%109
                0x00002ca0       0x48
 .text.Reset_Handler
                0x00002ca0       0x48 build/default/production/_ext/1171490990/startup_xc32.o
                0x00002ca0                Reset_Handler

.text.__libc_init_array%110
                0x00002ce8       0x48
 .text.__libc_init_array
                0x00002ce8       0x48 c:/program files/microchip/xc32/v3.01/bin/bin/../../lib/gcc/pic32c/8.3.1/../../../../pic32c/lib/thumb/v6-m/nofp\libc_nano.a(lib_a-init.o)
                0x00002ce8                __libc_init_array

.text.__ssfputs_r%111
                0x00002d30       0x48
 .text.__ssfputs_r
                0x00002d30       0x48 c:/program files/microchip/xc32/v3.01/bin/bin/../../lib/gcc/pic32c/8.3.1/../../../../pic32c/lib/thumb/v6-m/nofp\libc_nano.a(lib_a-__ssfputs.o)
                0x00002d30                __ssfputs_r

.text.std%112   0x00002d78       0x48
 .text.std      0x00002d78       0x48 c:/program files/microchip/xc32/v3.01/bin/bin/../../lib/gcc/pic32c/8.3.1/../../../../pic32c/lib/thumb/v6-m/nofp\libc_nano.a(lib_a-findfp.o)

.text.SERCOM5_USART_Read%113
                0x00002dc0       0x44
 .text.SERCOM5_USART_Read
                0x00002dc0       0x44 build/default/production/_ext/504274921/plib_sercom5_usart.o
                0x00002dc0                SERCOM5_USART_Read

.text.xPortPendSVHandler%114
                0x00002e10       0x44
 .text.xPortPendSVHandler
                0x00002e10       0x44 build/default/production/_ext/1624415188/port.o
                0x00002e10                xPortPendSVHandler

.text.TC5_CompareInitialize%115
                0x00002e54       0x44
 .text.TC5_CompareInitialize
                0x00002e54       0x44 build/default/production/_ext/829342655/plib_tc5.o
                0x00002e54                TC5_CompareInitialize

.text.TC4_CompareInitialize%116
                0x00002e98       0x44
 .text.TC4_CompareInitialize
                0x00002e98       0x44 build/default/production/_ext/829342655/plib_tc4.o
                0x00002e98                TC4_CompareInitialize

.text._fwalk_reent%117
                0x00002edc       0x42
 .text._fwalk_reent
                0x00002edc       0x42 c:/program files/microchip/xc32/v3.01/bin/bin/../../lib/gcc/pic32c/8.3.1/../../../../pic32c/lib/thumb/v6-m/nofp\libc_nano.a(lib_a-fwalk.o)
                0x00002edc                _fwalk_reent

.text.PORT_Initialize%118
                0x00002f20       0x40
 .text.PORT_Initialize
                0x00002f20       0x40 build/default/production/_ext/1865521619/plib_port.o
                0x00002f20                PORT_Initialize

.text%119       0x00002f60       0x40
 .text          0x00002f60       0x40 c:/program files/microchip/xc32/v3.01/bin/bin/../../lib/gcc/pic32c/8.3.1/thumb/v6-m/nofp\libgcc.a(_aeabi_uldivmod.o)
                0x00002f60                __aeabi_uldivmod

.text.xPortStartScheduler%120
                0x00002fa0       0x3c
 .text.xPortStartScheduler
                0x00002fa0       0x3c build/default/production/_ext/1624415188/port.o
                0x00002fa0                xPortStartScheduler

.text%121       0x00002fdc       0x3c
 .text          0x00002fdc       0x3c c:/program files/microchip/xc32/v3.01/bin/bin/../../lib/gcc/pic32c/8.3.1/thumb/v6-m/nofp\libgcc.a(_clzsi2.o)
                0x00002fdc                __clzsi2

.text._sprintf_cdnopuxX%122
                0x00003018       0x3c
 .text._sprintf_cdnopuxX
                0x00003018       0x3c c:/program files/microchip/xc32/v3.01/bin/bin/../../lib/gcc/pic32c/8.3.1/../../../../pic32c/lib/thumb/v6-m/nofp\libc_nano.a(_lib_a-sprintf.cdnopuxX.o)
                0x00003018                _sprintf_cdnopuxX
                0x00003018                __sprintf_di

.text.write%123
                0x00003054       0x3c
 .text.write    0x00003054       0x3c c:/program files/microchip/xc32/v3.01/bin/bin/../../lib/gcc/pic32c/8.3.1/../../../../pic32c/lib/thumb/v6-m/nofp\libpic32c.a(write.o)
                0x00003054                write

.text.__swrite%124
                0x00003090       0x38
 .text.__swrite
                0x00003090       0x38 c:/program files/microchip/xc32/v3.01/bin/bin/../../lib/gcc/pic32c/8.3.1/../../../../pic32c/lib/thumb/v6-m/nofp\libc_nano.a(lib_a-stdio.o)
                0x00003090                __swrite

.text.OSAL_SEM_PostISR%125
                0x000030c8       0x34
 .text.OSAL_SEM_PostISR
                0x000030c8       0x34 build/default/production/_ext/1529399856/osal_freertos.o
                0x000030c8                OSAL_SEM_PostISR

.text.vPortStartFirstTask%126
                0x00003100       0x34
 .text.vPortStartFirstTask
                0x00003100       0x34 build/default/production/_ext/1624415188/port.o

.rodata%127     0x00003134       0x33
 .rodata        0x00003134       0x33 c:/program files/microchip/xc32/v3.01/bin/bin/../../lib/gcc/pic32c/8.3.1/../../../../pic32c/lib/thumb/v6-m/nofp\libc_nano.a(_lib_a-nano-vfprintf.cdnopuxX.o)

.text._sbrk%128
                0x00003168       0x30
 .text._sbrk    0x00003168       0x30 c:/program files/microchip/xc32/v3.01/bin/bin/../../lib/gcc/pic32c/8.3.1/../../../../pic32c/lib/thumb/v6-m/nofp\libpic32c.a(sbrk.o)
                0x00003168                _sbrk

.text.vListInsert%129
                0x00003198       0x2e
 .text.vListInsert
                0x00003198       0x2e build/default/production/_ext/404212886/list.o
                0x00003198                vListInsert

.text.xQueueGenericCreate%130
                0x000031c6       0x2e
 .text.xQueueGenericCreate
                0x000031c6       0x2e build/default/production/_ext/404212886/queue.o
                0x000031c6                xQueueGenericCreate

.text.SERCOM5_USART_ErrorClear%131
                0x000031f4       0x2c
 .text.SERCOM5_USART_ErrorClear
                0x000031f4       0x2c build/default/production/_ext/504274921/plib_sercom5_usart.o

.rodata.drvUsart0InitData%132
                0x00003220       0x2c
 .rodata.drvUsart0InitData
                0x00003220       0x2c build/default/production/_ext/1171490990/initialization.o
                0x00003220                drvUsart0InitData

.rodata.drvUsart0PlibAPI%133
                0x0000324c       0x2c
 .rodata.drvUsart0PlibAPI
                0x0000324c       0x2c build/default/production/_ext/1171490990/initialization.o
                0x0000324c                drvUsart0PlibAPI

.text.prvResetNextTaskUnblockTime%134
                0x00003278       0x2c
 .text.prvResetNextTaskUnblockTime
                0x00003278       0x2c build/default/production/_ext/404212886/FreeRTOS_tasks.o

.text.APP1_Initialize%135
                0x000032a4       0x2c
 .text.APP1_Initialize
                0x000032a4       0x2c build/default/production/_ext/1360937237/app1.o
                0x000032a4                APP1_Initialize

.rodata%136     0x000032d0       0x2c
 .rodata        0x000032d0       0x2c build/default/production/_ext/1360937237/app1.o

.text.__sfmoreglue%137
                0x000032fc       0x2c
 .text.__sfmoreglue
                0x000032fc       0x2c c:/program files/microchip/xc32/v3.01/bin/bin/../../lib/gcc/pic32c/8.3.1/../../../../pic32c/lib/thumb/v6-m/nofp\libc_nano.a(lib_a-findfp.o)
                0x000032fc                __sfmoreglue

.text.__sseek%138
                0x00003328       0x2c
 .text.__sseek  0x00003328       0x2c c:/program files/microchip/xc32/v3.01/bin/bin/../../lib/gcc/pic32c/8.3.1/../../../../pic32c/lib/thumb/v6-m/nofp\libc_nano.a(lib_a-stdio.o)
                0x00003328                __sseek

.text._wcrtomb_r%139
                0x00003354       0x2c
 .text._wcrtomb_r
                0x00003354       0x2c c:/program files/microchip/xc32/v3.01/bin/bin/../../lib/gcc/pic32c/8.3.1/../../../../pic32c/lib/thumb/v6-m/nofp\libc_nano.a(lib_a-wcrtomb.o)
                0x00003354                _wcrtomb_r

.text.read%140  0x00003380       0x2c
 .text.read     0x00003380       0x2c c:/program files/microchip/xc32/v3.01/bin/bin/../../lib/gcc/pic32c/8.3.1/../../../../pic32c/lib/thumb/v6-m/nofp\libpic32c.a(read.o)
                0x00003380                read

.text.__sfputc_r%141
                0x000033ac       0x2a
 .text.__sfputc_r
                0x000033ac       0x2a c:/program files/microchip/xc32/v3.01/bin/bin/../../lib/gcc/pic32c/8.3.1/../../../../pic32c/lib/thumb/v6-m/nofp\libc_nano.a(lib_a-__ssfputs.o)

.text.SERCOM5_USART_ReadAbort%142
                0x000033d8       0x28
 .text.SERCOM5_USART_ReadAbort
                0x000033d8       0x28 build/default/production/_ext/504274921/plib_sercom5_usart.o
                0x000033d8                SERCOM5_USART_ReadAbort

.text.vPortSetupTimerInterrupt%143
                0x00003400       0x28
 .text.vPortSetupTimerInterrupt
                0x00003400       0x28 build/default/production/_ext/1624415188/port.o
                0x00003400                vPortSetupTimerInterrupt

.text.__sread%144
                0x00003428       0x28
 .text.__sread  0x00003428       0x28 c:/program files/microchip/xc32/v3.01/bin/bin/../../lib/gcc/pic32c/8.3.1/../../../../pic32c/lib/thumb/v6-m/nofp\libc_nano.a(lib_a-stdio.o)
                0x00003428                __sread

.text._write_r%145
                0x00003450       0x28
 .text._write_r
                0x00003450       0x28 c:/program files/microchip/xc32/v3.01/bin/bin/../../lib/gcc/pic32c/8.3.1/../../../../pic32c/lib/thumb/v6-m/nofp\libc_nano.a(lib_a-writer.o)
                0x00003450                _write_r

.text._lseek_r%146
                0x00003478       0x28
 .text._lseek_r
                0x00003478       0x28 c:/program files/microchip/xc32/v3.01/bin/bin/../../lib/gcc/pic32c/8.3.1/../../../../pic32c/lib/thumb/v6-m/nofp\libc_nano.a(lib_a-lseekr.o)
                0x00003478                _lseek_r

.text._read_r%147
                0x000034a0       0x28
 .text._read_r  0x000034a0       0x28 c:/program files/microchip/xc32/v3.01/bin/bin/../../lib/gcc/pic32c/8.3.1/../../../../pic32c/lib/thumb/v6-m/nofp\libc_nano.a(lib_a-readr.o)
                0x000034a0                _read_r

.text.uxListRemove%148
                0x000034c8       0x26
 .text.uxListRemove
                0x000034c8       0x26 build/default/production/_ext/404212886/list.o
                0x000034c8                uxListRemove

.text.OSAL_SEM_Pend%149
                0x000034f0       0x24
 .text.OSAL_SEM_Pend
                0x000034f0       0x24 build/default/production/_ext/1529399856/osal_freertos.o
                0x000034f0                OSAL_SEM_Pend

.text.OSAL_MUTEX_Lock%150
                0x00003514       0x24
 .text.OSAL_MUTEX_Lock
                0x00003514       0x24 build/default/production/_ext/1529399856/osal_freertos.o
                0x00003514                OSAL_MUTEX_Lock

.rodata%151     0x00003538       0x24
 .rodata        0x00003538       0x24 build/default/production/_ext/1171490990/tasks.o

.text.xPortSysTickHandler%152
                0x0000355c       0x24
 .text.xPortSysTickHandler
                0x0000355c       0x24 build/default/production/_ext/1624415188/port.o
                0x0000355c                xPortSysTickHandler

.text.prvCopyDataFromQueue%153
                0x00003580       0x24
 .text.prvCopyDataFromQueue
                0x00003580       0x24 build/default/production/_ext/404212886/queue.o

.text.xQueueCreateMutex%154
                0x000035a4       0x24
 .text.xQueueCreateMutex
                0x000035a4       0x24 build/default/production/_ext/404212886/queue.o
                0x000035a4                xQueueCreateMutex

.text.TC5_CompareInterruptHandler%155
                0x000035c8       0x24
 .text.TC5_CompareInterruptHandler
                0x000035c8       0x24 build/default/production/_ext/829342655/plib_tc5.o
                0x000035c8                TC5_CompareInterruptHandler

.text.TC4_CompareInterruptHandler%156
                0x000035ec       0x24
 .text.TC4_CompareInterruptHandler
                0x000035ec       0x24 build/default/production/_ext/829342655/plib_tc4.o
                0x000035ec                TC4_CompareInterruptHandler

.text.__ascii_mbtowc%157
                0x00003610       0x24
 .text.__ascii_mbtowc
                0x00003610       0x24 c:/program files/microchip/xc32/v3.01/bin/bin/../../lib/gcc/pic32c/8.3.1/../../../../pic32c/lib/thumb/v6-m/nofp\libc_nano.a(lib_a-mbtowc_r.o)
                0x00003610                __ascii_mbtowc

.text._sbrk_r%158
                0x00003634       0x24
 .text._sbrk_r  0x00003634       0x24 c:/program files/microchip/xc32/v3.01/bin/bin/../../lib/gcc/pic32c/8.3.1/../../../../pic32c/lib/thumb/v6-m/nofp\libc_nano.a(lib_a-sbrkr.o)
                0x00003634                _sbrk_r

.text._close_r%159
                0x00003658       0x24
 .text._close_r
                0x00003658       0x24 c:/program files/microchip/xc32/v3.01/bin/bin/../../lib/gcc/pic32c/8.3.1/../../../../pic32c/lib/thumb/v6-m/nofp\libc_nano.a(lib_a-closer.o)
                0x00003658                _close_r

.text._fstat_r%160
                0x0000367c       0x24
 .text._fstat_r
                0x0000367c       0x24 c:/program files/microchip/xc32/v3.01/bin/bin/../../lib/gcc/pic32c/8.3.1/../../../../pic32c/lib/thumb/v6-m/nofp\libc_nano.a(lib_a-fstatr.o)
                0x0000367c                _fstat_r

.text._isatty_r%161
                0x000036a0       0x24
 .text._isatty_r
                0x000036a0       0x24 c:/program files/microchip/xc32/v3.01/bin/bin/../../lib/gcc/pic32c/8.3.1/../../../../pic32c/lib/thumb/v6-m/nofp\libc_nano.a(lib_a-isattyr.o)
                0x000036a0                _isatty_r

.text.pxPortInitialiseStack%162
                0x000036c4       0x20
 .text.pxPortInitialiseStack
                0x000036c4       0x20 build/default/production/_ext/1624415188/port.o
                0x000036c4                pxPortInitialiseStack

.text.vTaskDelay%163
                0x000036e4       0x20
 .text.vTaskDelay
                0x000036e4       0x20 build/default/production/_ext/404212886/FreeRTOS_tasks.o
                0x000036e4                vTaskDelay

.rodata%164     0x00003704       0x20
 .rodata        0x00003704       0x20 build/default/production/_ext/1360937237/app2.o

.text._fputwc_r%165
                0x00003724       0x1e
 .text._fputwc_r
                0x00003724       0x1e c:/program files/microchip/xc32/v3.01/bin/bin/../../lib/gcc/pic32c/8.3.1/../../../../pic32c/lib/thumb/v6-m/nofp\libc_nano.a(lib_a-fputwc.o)
                0x00003724                _fputwc_r

.text.vTaskPlaceOnEventList%166
                0x00003744       0x1c
 .text.vTaskPlaceOnEventList
                0x00003744       0x1c build/default/production/_ext/404212886/FreeRTOS_tasks.o
                0x00003744                vTaskPlaceOnEventList

.text.pvTaskIncrementMutexHeldCount%167
                0x00003760       0x1c
 .text.pvTaskIncrementMutexHeldCount
                0x00003760       0x1c build/default/production/_ext/404212886/FreeRTOS_tasks.o
                0x00003760                pvTaskIncrementMutexHeldCount

.text.APP2_Initialize%168
                0x0000377c       0x1c
 .text.APP2_Initialize
                0x0000377c       0x1c build/default/production/_ext/1360937237/app2.o
                0x0000377c                APP2_Initialize

.text.OSAL_MUTEX_Create%169
                0x00003798       0x1a
 .text.OSAL_MUTEX_Create
                0x00003798       0x1a build/default/production/_ext/1529399856/osal_freertos.o
                0x00003798                OSAL_MUTEX_Create

.text.OSAL_MUTEX_Unlock%170
                0x000037b2       0x18
 .text.OSAL_MUTEX_Unlock
                0x000037b2       0x18 build/default/production/_ext/1529399856/osal_freertos.o
                0x000037b2                OSAL_MUTEX_Unlock

.rodata.drvUsart0remapParity%171
                0x000037cc       0x18
 .rodata.drvUsart0remapParity
                0x000037cc       0x18 build/default/production/_ext/1171490990/initialization.o
                0x000037cc                drvUsart0remapParity

.text.vPortYield%172
                0x000037e4       0x18
 .text.vPortYield
                0x000037e4       0x18 build/default/production/_ext/1624415188/port.o
                0x000037e4                vPortYield

.text.vPortEnterCritical%173
                0x000037fc       0x18
 .text.vPortEnterCritical
                0x000037fc       0x18 build/default/production/_ext/1624415188/port.o
                0x000037fc                vPortEnterCritical

.text.vTaskInternalSetTimeOutState%174
                0x00003814       0x18
 .text.vTaskInternalSetTimeOutState
                0x00003814       0x18 build/default/production/_ext/404212886/FreeRTOS_tasks.o
                0x00003814                vTaskInternalSetTimeOutState

.text.APP3_Tasks%175
                0x0000382c       0x18
 .text.APP3_Tasks
                0x0000382c       0x18 build/default/production/_ext/1360937237/app3.o
                0x0000382c                APP3_Tasks

.text.TC5_CompareStart%176
                0x00003844       0x18
 .text.TC5_CompareStart
                0x00003844       0x18 build/default/production/_ext/829342655/plib_tc5.o
                0x00003844                TC5_CompareStart

.text.TC5_CompareStop%177
                0x0000385c       0x18
 .text.TC5_CompareStop
                0x0000385c       0x18 build/default/production/_ext/829342655/plib_tc5.o
                0x0000385c                TC5_CompareStop

.text.TC4_CompareStart%178
                0x00003874       0x18
 .text.TC4_CompareStart
                0x00003874       0x18 build/default/production/_ext/829342655/plib_tc4.o
                0x00003874                TC4_CompareStart

.text.TC4_CompareStop%179
                0x0000388c       0x18
 .text.TC4_CompareStop
                0x0000388c       0x18 build/default/production/_ext/829342655/plib_tc4.o
                0x0000388c                TC4_CompareStop

.text%180       0x000038a4       0x18
 .text          0x000038a4       0x18 c:/program files/microchip/xc32/v3.01/bin/bin/../../lib/gcc/pic32c/8.3.1/thumb/v6-m/nofp\libgcc.a(_clzdi2.o)
                0x000038a4                __clzdi2

.text._vfprintf_cdnopuxX%181
                0x000038bc       0x18
 .text._vfprintf_cdnopuxX
                0x000038bc       0x18 c:/program files/microchip/xc32/v3.01/bin/bin/../../lib/gcc/pic32c/8.3.1/../../../../pic32c/lib/thumb/v6-m/nofp\libc_nano.a(_lib_a-nano-vfprintf.cdnopuxX.o)
                0x000038bc                _vfprintf_cdnopuxX

.text.__ascii_wctomb%182
                0x000038d4       0x18
 .text.__ascii_wctomb
                0x000038d4       0x18 c:/program files/microchip/xc32/v3.01/bin/bin/../../lib/gcc/pic32c/8.3.1/../../../../pic32c/lib/thumb/v6-m/nofp\libc_nano.a(lib_a-wctomb_r.o)
                0x000038d4                __ascii_wctomb

.text.vListInitialise%183
                0x000038ec       0x16
 .text.vListInitialise
                0x000038ec       0x16 build/default/production/_ext/404212886/list.o
                0x000038ec                vListInitialise

.text.vListInsertEnd%184
                0x00003902       0x16
 .text.vListInsertEnd
                0x00003902       0x16 build/default/production/_ext/404212886/list.o
                0x00003902                vListInsertEnd

.text.memchr%185
                0x00003918       0x16
 .text.memchr   0x00003918       0x16 c:/program files/microchip/xc32/v3.01/bin/bin/../../lib/gcc/pic32c/8.3.1/../../../../pic32c/lib/thumb/v6-m/nofp\libc_nano.a(lib_a-memchr-stub.o)
                0x00003918                memchr

.rodata.drvUsart0remapDataWidth%186
                0x00003930       0x14
 .rodata.drvUsart0remapDataWidth
                0x00003930       0x14 build/default/production/_ext/1171490990/initialization.o
                0x00003930                drvUsart0remapDataWidth

.text.vPortExitCritical%187
                0x00003944       0x14
 .text.vPortExitCritical
                0x00003944       0x14 build/default/production/_ext/1624415188/port.o
                0x00003944                vPortExitCritical

.text.prvIsQueueEmpty%188
                0x00003958       0x14
 .text.prvIsQueueEmpty
                0x00003958       0x14 build/default/production/_ext/404212886/queue.o

.text.xQueueCreateCountingSemaphore%189
                0x0000396c       0x14
 .text.xQueueCreateCountingSemaphore
                0x0000396c       0x14 build/default/production/_ext/404212886/queue.o
                0x0000396c                xQueueCreateCountingSemaphore

.text.TC4_callBack%190
                0x00003980       0x14
 .text.TC4_callBack
                0x00003980       0x14 build/default/production/_ext/1360937237/app1.o
                0x00003980                TC4_callBack

.text.TC5_callBack%191
                0x00003994       0x14
 .text.TC5_callBack
                0x00003994       0x14 build/default/production/_ext/1360937237/app2.o
                0x00003994                TC5_callBack

.text.prvTaskExitError%192
                0x000039a8       0x12
 .text.prvTaskExitError
                0x000039a8       0x12 build/default/production/_ext/1624415188/port.o

.text.uxQueueMessagesWaiting%193
                0x000039ba       0x12
 .text.uxQueueMessagesWaiting
                0x000039ba       0x12 build/default/production/_ext/404212886/queue.o
                0x000039ba                uxQueueMessagesWaiting

.text.memcpy%194
                0x000039cc       0x12
 .text.memcpy   0x000039cc       0x12 c:/program files/microchip/xc32/v3.01/bin/bin/../../lib/gcc/pic32c/8.3.1/../../../../pic32c/lib/thumb/v6-m/nofp\libc_nano.a(lib_a-memcpy-stub.o)
                0x000039cc                memcpy

.text._DRV_USART_TX_PLIB_CallbackHandler%195
                0x000039de       0x10
 .text._DRV_USART_TX_PLIB_CallbackHandler
                0x000039de       0x10 build/default/production/_ext/869808652/drv_usart.o

.text.SERCOM5_USART_ErrorGet%196
                0x000039f0       0x10
 .text.SERCOM5_USART_ErrorGet
                0x000039f0       0x10 build/default/production/_ext/504274921/plib_sercom5_usart.o
                0x000039f0                SERCOM5_USART_ErrorGet

.text.SERCOM5_USART_ReadIsBusy%197
                0x00003a00       0x10
 .text.SERCOM5_USART_ReadIsBusy
                0x00003a00       0x10 build/default/production/_ext/504274921/plib_sercom5_usart.o
                0x00003a00                SERCOM5_USART_ReadIsBusy

.text.vTaskSuspendAll%198
                0x00003a10       0x10
 .text.vTaskSuspendAll
                0x00003a10       0x10 build/default/production/_ext/404212886/FreeRTOS_tasks.o
                0x00003a10                vTaskSuspendAll

.text.memset%199
                0x00003a20       0x10
 .text.memset   0x00003a20       0x10 c:/program files/microchip/xc32/v3.01/bin/bin/../../lib/gcc/pic32c/8.3.1/../../../../pic32c/lib/thumb/v6-m/nofp\libc_nano.a(lib_a-memset.o)
                0x00003a20                memset

.text._cleanup_r%200
                0x00003a30       0x10
 .text._cleanup_r
                0x00003a30       0x10 c:/program files/microchip/xc32/v3.01/bin/bin/../../lib/gcc/pic32c/8.3.1/../../../../pic32c/lib/thumb/v6-m/nofp\libc_nano.a(lib_a-findfp.o)
                0x00003a30                _cleanup_r

.text.__locale_mb_cur_max%201
                0x00003a40       0x10
 .text.__locale_mb_cur_max
                0x00003a40       0x10 c:/program files/microchip/xc32/v3.01/bin/bin/../../lib/gcc/pic32c/8.3.1/../../../../pic32c/lib/thumb/v6-m/nofp\libc_nano.a(lib_a-locale.o)
                0x00003a40                __locale_mb_cur_max

.text.main%202  0x00003a50        0xe
 .text.main     0x00003a50        0xe build/default/production/_ext/1360937237/main_d21.o
                0x00003a50                main

.text%203       0x00003a5e        0xe
 .text          0x00003a5e        0xe c:/program files/microchip/xc32/v3.01/bin/bin/../../lib/gcc/pic32c/8.3.1/../../../../pic32c/lib/thumb/v6-m/nofp\libc_nano.a(lib_a-strlen.o)
                0x00003a5e                strlen

.text.NVMCTRL_Initialize%204
                0x00002e04        0xc
 .text.NVMCTRL_Initialize
                0x00002e04        0xc build/default/production/_ext/1593096446/plib_nvmctrl.o
                0x00002e04                NVMCTRL_Initialize

.text.SERCOM5_USART_WriteIsBusy%205
                0x00003a6c        0xc
 .text.SERCOM5_USART_WriteIsBusy
                0x00003a6c        0xc build/default/production/_ext/504274921/plib_sercom5_usart.o
                0x00003a6c                SERCOM5_USART_WriteIsBusy

.text.SERCOM5_USART_WriteCountGet%206
                0x00003a78        0xc
 .text.SERCOM5_USART_WriteCountGet
                0x00003a78        0xc build/default/production/_ext/504274921/plib_sercom5_usart.o
                0x00003a78                SERCOM5_USART_WriteCountGet

.text.SERCOM5_USART_WriteCallbackRegister%207
                0x00003a84        0xc
 .text.SERCOM5_USART_WriteCallbackRegister
                0x00003a84        0xc build/default/production/_ext/504274921/plib_sercom5_usart.o
                0x00003a84                SERCOM5_USART_WriteCallbackRegister

.text.SERCOM5_USART_ReadCountGet%208
                0x00003a90        0xc
 .text.SERCOM5_USART_ReadCountGet
                0x00003a90        0xc build/default/production/_ext/504274921/plib_sercom5_usart.o
                0x00003a90                SERCOM5_USART_ReadCountGet

.text.SERCOM5_USART_ReadCallbackRegister%209
                0x00003a9c        0xc
 .text.SERCOM5_USART_ReadCallbackRegister
                0x00003a9c        0xc build/default/production/_ext/504274921/plib_sercom5_usart.o
                0x00003a9c                SERCOM5_USART_ReadCallbackRegister

.rodata.drvUsart0remapError%210
                0x00003aa8        0xc
 .rodata.drvUsart0remapError
                0x00003aa8        0xc build/default/production/_ext/1171490990/initialization.o
                0x00003aa8                drvUsart0remapError

.rodata.drvUsart0remapStopBits%211
                0x00003ab4        0xc
 .rodata.drvUsart0remapStopBits
                0x00003ab4        0xc build/default/production/_ext/1171490990/initialization.o
                0x00003ab4                drvUsart0remapStopBits

.text.vTaskMissedYield%212
                0x00003ac0        0xc
 .text.vTaskMissedYield
                0x00003ac0        0xc build/default/production/_ext/404212886/FreeRTOS_tasks.o
                0x00003ac0                vTaskMissedYield

.text.TC5_CompareCallbackRegister%213
                0x00003acc        0xc
 .text.TC5_CompareCallbackRegister
                0x00003acc        0xc build/default/production/_ext/829342655/plib_tc5.o
                0x00003acc                TC5_CompareCallbackRegister

.text.TC4_CompareCallbackRegister%214
                0x00003ad8        0xc
 .text.TC4_CompareCallbackRegister
                0x00003ad8        0xc build/default/production/_ext/829342655/plib_tc4.o
                0x00003ad8                TC4_CompareCallbackRegister

.text.__sclose%215
                0x00003ae4        0xc
 .text.__sclose
                0x00003ae4        0xc c:/program files/microchip/xc32/v3.01/bin/bin/../../lib/gcc/pic32c/8.3.1/../../../../pic32c/lib/thumb/v6-m/nofp\libc_nano.a(lib_a-stdio.o)
                0x00003ae4                __sclose

.text.fstat%216
                0x00003af0        0xc
 .text.fstat    0x00003af0        0xc c:/program files/microchip/xc32/v3.01/bin/bin/../../lib/gcc/pic32c/8.3.1/../../../../pic32c/lib/thumb/v6-m/nofp\libpic32c.a(fstat.o)
                0x00003af0                fstat

.rodata%217     0x00003afc        0xb
 .rodata        0x00003afc        0xb c:/program files/microchip/xc32/v3.01/bin/bin/../../lib/gcc/pic32c/8.3.1/../../../../pic32c/lib/thumb/v6-m/nofp\libc_nano.a(lib_a-locale.o)

.text._APP1_Tasks%218
                0x00003b08        0x8
 .text._APP1_Tasks
                0x00003b08        0x8 build/default/production/_ext/1171490990/tasks.o
                0x00003b08                _APP1_Tasks

.text._APP2_Tasks%219
                0x00003b10        0x8
 .text._APP2_Tasks
                0x00003b10        0x8 build/default/production/_ext/1171490990/tasks.o
                0x00003b10                _APP2_Tasks

.text._APP3_Tasks%220
                0x00003b18        0x8
 .text._APP3_Tasks
                0x00003b18        0x8 build/default/production/_ext/1171490990/tasks.o
                0x00003b18                _APP3_Tasks

.text.ulSetInterruptMaskFromISR%221
                0x00003b20        0x8
 .text.ulSetInterruptMaskFromISR
                0x00003b20        0x8 build/default/production/_ext/1624415188/port.o
                0x00003b20                ulSetInterruptMaskFromISR

.rodata%222     0x00003b28        0x8
 .rodata        0x00003b28        0x8 build/default/production/_ext/404212886/FreeRTOS_tasks.o

.text._close%223
                0x00003b30        0x8
 .text._close   0x00003b30        0x8 c:/program files/microchip/xc32/v3.01/bin/bin/../../lib/gcc/pic32c/8.3.1/../../../../pic32c/lib/thumb/v6-m/nofp\libpic32c.a(_close.o)
                0x00003b30                _close

.text._fstat%224
                0x00003b38        0x8
 .text._fstat   0x00003b38        0x8 c:/program files/microchip/xc32/v3.01/bin/bin/../../lib/gcc/pic32c/8.3.1/../../../../pic32c/lib/thumb/v6-m/nofp\libpic32c.a(_fstat.o)
                0x00003b38                _fstat

.text._isatty%225
                0x00003b40        0x8
 .text._isatty  0x00003b40        0x8 c:/program files/microchip/xc32/v3.01/bin/bin/../../lib/gcc/pic32c/8.3.1/../../../../pic32c/lib/thumb/v6-m/nofp\libpic32c.a(_isatty.o)
                0x00003b40                _isatty

.text._lseek%226
                0x00003b48        0x8
 .text._lseek   0x00003b48        0x8 c:/program files/microchip/xc32/v3.01/bin/bin/../../lib/gcc/pic32c/8.3.1/../../../../pic32c/lib/thumb/v6-m/nofp\libpic32c.a(_lseek.o)
                0x00003b48                _lseek

.text._read%227
                0x00003b50        0x8
 .text._read    0x00003b50        0x8 c:/program files/microchip/xc32/v3.01/bin/bin/../../lib/gcc/pic32c/8.3.1/../../../../pic32c/lib/thumb/v6-m/nofp\libpic32c.a(_read.o)
                0x00003b50                _read

.text._write%228
                0x00003b58        0x8
 .text._write   0x00003b58        0x8 c:/program files/microchip/xc32/v3.01/bin/bin/../../lib/gcc/pic32c/8.3.1/../../../../pic32c/lib/thumb/v6-m/nofp\libpic32c.a(_write.o)
                0x00003b58                _write

.text.close%229
                0x00003b60        0x8
 .text.close    0x00003b60        0x8 c:/program files/microchip/xc32/v3.01/bin/bin/../../lib/gcc/pic32c/8.3.1/../../../../pic32c/lib/thumb/v6-m/nofp\libpic32c.a(close.o)
                0x00003b60                close

.text.vClearInterruptMaskFromISR%230
                0x00003b68        0x6
 .text.vClearInterruptMaskFromISR
                0x00003b68        0x6 build/default/production/_ext/1624415188/port.o
                0x00003b68                vClearInterruptMaskFromISR

.text.vListInitialiseItem%231
                0x00003b6e        0x6
 .text.vListInitialiseItem
                0x00003b6e        0x6 build/default/production/_ext/404212886/list.o
                0x00003b6e                vListInitialiseItem

.text._mon_getc%232
                0x000030fc        0x4
 .text._mon_getc
                0x000030fc        0x4 build/default/production/_ext/163028504/xc32_monitor.o
                0x000030fc                _mon_getc

.text.vApplicationStackOverflowHook%233
                0x00003b74        0x4
 .text.vApplicationStackOverflowHook
                0x00003b74        0x4 build/default/production/_ext/1171490990/freertos_hooks.o
                0x00003b74                vApplicationStackOverflowHook

.text.vApplicationMallocFailedHook%234
                0x00003b78        0x4
 .text.vApplicationMallocFailedHook
                0x00003b78        0x4 build/default/production/_ext/1171490990/freertos_hooks.o
                0x00003b78                vApplicationMallocFailedHook

.text%235       0x00003b7c        0x4
 .text          0x00003b7c        0x4 c:/program files/microchip/xc32/v3.01/bin/bin/../../lib/gcc/pic32c/8.3.1/thumb/v6-m/nofp\libgcc.a(_dvmd_tls.o)
                0x00003b7c                __aeabi_idiv0
                0x00003b7c                __aeabi_ldiv0

.rodata._global_impure_ptr%236
                0x00003b80        0x4
 .rodata._global_impure_ptr
                0x00003b80        0x4 c:/program files/microchip/xc32/v3.01/bin/bin/../../lib/gcc/pic32c/8.3.1/../../../../pic32c/lib/thumb/v6-m/nofp\libc_nano.a(lib_a-impure.o)
                0x00003b80                _global_impure_ptr

.text.isatty%237
                0x00003b84        0x4
 .text.isatty   0x00003b84        0x4 c:/program files/microchip/xc32/v3.01/bin/bin/../../lib/gcc/pic32c/8.3.1/../../../../pic32c/lib/thumb/v6-m/nofp\libpic32c.a(isatty.o)
                0x00003b84                isatty

.text.lseek%238
                0x00003b88        0x4
 .text.lseek    0x00003b88        0x4 c:/program files/microchip/xc32/v3.01/bin/bin/../../lib/gcc/pic32c/8.3.1/../../../../pic32c/lib/thumb/v6-m/nofp\libpic32c.a(lseek.o)
                0x00003b88                lseek

.text.EVSYS_Initialize%239
                0x00000f3a        0x2
 .text.EVSYS_Initialize
                0x00000f3a        0x2 build/default/production/_ext/1986646378/plib_evsys.o
                0x00000f3a                EVSYS_Initialize

.text._mon_putc%240
                0x000017be        0x2
 .text._mon_putc
                0x000017be        0x2 build/default/production/_ext/163028504/xc32_monitor.o
                0x000017be                _mon_putc

.text.SYS_DMA_DataWidthSetup%241
                0x00001b4e        0x2
 .text.SYS_DMA_DataWidthSetup
                0x00001b4e        0x2 build/default/production/_ext/14461671/sys_dma.o
                0x00001b4e                SYS_DMA_DataWidthSetup

.text.Dummy_Handler%242
                0x0000231a        0x2
 .text.Dummy_Handler
                0x0000231a        0x2 build/default/production/_ext/1171490990/interrupts.o
                0x0000231a                DMAC_Handler
                0x0000231a                AC_Handler
                0x0000231a                SERCOM1_Handler
                0x0000231a                ADC_Handler
                0x0000231a                TCC1_Handler
                0x0000231a                SERCOM2_Handler
                0x0000231a                TCC0_Handler
                0x0000231a                RTC_Handler
                0x0000231a                EIC_Handler
                0x0000231a                WDT_Handler
                0x0000231a                USB_Handler
                0x0000231a                TC3_Handler
                0x0000231a                Dummy_Handler
                0x0000231a                PM_Handler
                0x0000231a                TCC2_Handler
                0x0000231a                EVSYS_Handler
                0x0000231a                SERCOM3_Handler
                0x0000231a                SERCOM4_Handler
                0x0000231a                I2S_Handler
                0x0000231a                NVMCTRL_Handler
                0x0000231a                SERCOM0_Handler
                0x0000231a                DAC_Handler
                0x0000231a                PTC_Handler
                0x0000231a                SYSCTRL_Handler

.text.NonMaskableInt_Handler%243
                0x0000257e        0x2
 .text.NonMaskableInt_Handler
                0x0000257e        0x2 build/default/production/_ext/1171490990/exceptions.o
                0x0000257e                NonMaskableInt_Handler

.text.HardFault_Handler%244
                0x000027f6        0x2
 .text.HardFault_Handler
                0x000027f6        0x2 build/default/production/_ext/1171490990/exceptions.o
                0x000027f6                HardFault_Handler

.text.Dummy_App_Func%245
                0x00002f1e        0x2
 .text.Dummy_App_Func
                0x00002f1e        0x2 build/default/production/_ext/1171490990/startup_xc32.o
                0x00002f1e                _on_reset
                0x00002f1e                _on_bootstrap
                0x00002f1e                __xc32_on_reset
                0x00002f1e                Dummy_App_Func
                0x00002f1e                __xc32_on_bootstrap

.text.vPortSVCHandler%246
                0x000033d6        0x2
 .text.vPortSVCHandler
                0x000033d6        0x2 build/default/production/_ext/1624415188/port.o
                0x000033d6                vPortSVCHandler

.text.vPortFree%247
                0x000034ee        0x2
 .text.vPortFree
                0x000034ee        0x2 build/default/production/_ext/1665200909/heap_1.o
                0x000034ee                vPortFree

.text.APP3_Initialize%248
                0x00003742        0x2
 .text.APP3_Initialize
                0x00003742        0x2 build/default/production/_ext/1360937237/app3.o
                0x00003742                APP3_Initialize

.text.__malloc_lock%249
                0x000037ca        0x2
 .text.__malloc_lock
                0x000037ca        0x2 c:/program files/microchip/xc32/v3.01/bin/bin/../../lib/gcc/pic32c/8.3.1/../../../../pic32c/lib/thumb/v6-m/nofp\libc_nano.a(lib_a-mlock.o)
                0x000037ca                __malloc_lock

.text.__malloc_unlock%250
                0x0000392e        0x2
 .text.__malloc_unlock
                0x0000392e        0x2 c:/program files/microchip/xc32/v3.01/bin/bin/../../lib/gcc/pic32c/8.3.1/../../../../pic32c/lib/thumb/v6-m/nofp\libc_nano.a(lib_a-mlock.o)
                0x0000392e                __malloc_unlock
